
.\rom_0x08000000.elf:     file format elf32-littlearm
.\rom_0x08000000.elf
architecture: armv7e-m, flags 0x00000112:
EXEC_P, HAS_SYMS, D_PAGED
start address 0x08000000

Program Header:
0x70000001 off    0x00008ae8 vaddr 0x08007ae8 paddr 0x08007ae8 align 2**2
         filesz 0x00000008 memsz 0x00000008 flags r--
    LOAD off    0x00001000 vaddr 0x08000000 paddr 0x08000000 align 2**12
         filesz 0x00008400 memsz 0x00008400 flags r-x
    LOAD off    0x0000a000 vaddr 0x20000000 paddr 0x08008400 align 2**12
         filesz 0x000001d4 memsz 0x00000360 flags rw-
private flags = 0x5000400: [Version5 EABI] [hard-float ABI]

Sections:
Idx Name          Size      VMA       LMA       File off  Algn
  0 .text         00003750  08000000  08000000  00001000  2**4
                  CONTENTS, ALLOC, LOAD, READONLY, CODE
  1 .text.__cvt   000000be  08003750  08003750  00004750  2**1
                  CONTENTS, ALLOC, LOAD, READONLY, CODE
  2 .text.__exponent 00000076  0800380e  0800380e  0000480e  2**1
                  CONTENTS, ALLOC, LOAD, READONLY, CODE
  3 .text._printf_float 00000448  08003884  08003884  00004884  2**2
                  CONTENTS, ALLOC, LOAD, READONLY, CODE
  4 .text._printf_common 000000ea  08003ccc  08003ccc  00004ccc  2**1
                  CONTENTS, ALLOC, LOAD, READONLY, CODE
  5 .text._printf_i 00000254  08003db8  08003db8  00004db8  2**2
                  CONTENTS, ALLOC, LOAD, READONLY, CODE
  6 .text._printf_r 0000001c  0800400c  0800400c  0000500c  2**1
                  CONTENTS, ALLOC, LOAD, READONLY, CODE
  7 .text.printf  00000024  08004028  08004028  00005028  2**2
                  CONTENTS, ALLOC, LOAD, READONLY, CODE
  8 .text.setvbuf 00000168  0800404c  0800404c  0000504c  2**2
                  CONTENTS, ALLOC, LOAD, READONLY, CODE
  9 .text._sprintf_r 0000003c  080041b4  080041b4  000051b4  2**2
                  CONTENTS, ALLOC, LOAD, READONLY, CODE
 10 .text.sprintf 00000044  080041f0  080041f0  000051f0  2**2
                  CONTENTS, ALLOC, LOAD, READONLY, CODE
 11 .text.sscanf  00000058  08004234  08004234  00005234  2**2
                  CONTENTS, ALLOC, LOAD, READONLY, CODE
 12 .text._sscanf_r 00000054  0800428c  0800428c  0000528c  2**2
                  CONTENTS, ALLOC, LOAD, READONLY, CODE
 13 .text.__sread 00000022  080042e0  080042e0  000052e0  2**1
                  CONTENTS, ALLOC, LOAD, READONLY, CODE
 14 .text.__seofread 00000004  08004302  08004302  00005302  2**1
                  CONTENTS, ALLOC, LOAD, READONLY, CODE
 15 .text.__swrite 00000038  08004306  08004306  00005306  2**1
                  CONTENTS, ALLOC, LOAD, READONLY, CODE
 16 .text.__sseek 00000026  0800433e  0800433e  0000533e  2**1
                  CONTENTS, ALLOC, LOAD, READONLY, CODE
 17 .text.__sclose 00000008  08004364  08004364  00005364  2**1
                  CONTENTS, ALLOC, LOAD, READONLY, CODE
 18 .text._vsprintf_r 0000002c  0800436c  0800436c  0000536c  2**2
                  CONTENTS, ALLOC, LOAD, READONLY, CODE
 19 .text.vsprintf 00000014  08004398  08004398  00005398  2**2
                  CONTENTS, ALLOC, LOAD, READONLY, CODE
 20 .text.__localeconv_l 00000004  080043ac  080043ac  000053ac  2**1
                  CONTENTS, ALLOC, LOAD, READONLY, CODE
 21 .text._localeconv_r 00000008  080043b0  080043b0  000053b0  2**2
                  CONTENTS, ALLOC, LOAD, READONLY, CODE
 22 .text.localeconv 00000008  080043b8  080043b8  000053b8  2**2
                  CONTENTS, ALLOC, LOAD, READONLY, CODE
 23 .text._close_r 00000020  080043c0  080043c0  000053c0  2**2
                  CONTENTS, ALLOC, LOAD, READONLY, CODE
 24 .text._reclaim_reent 000000bc  080043e0  080043e0  000053e0  2**2
                  CONTENTS, ALLOC, LOAD, READONLY, CODE
 25 .text._lseek_r 00000024  0800449c  0800449c  0000549c  2**2
                  CONTENTS, ALLOC, LOAD, READONLY, CODE
 26 .text._read_r 00000024  080044c0  080044c0  000054c0  2**2
                  CONTENTS, ALLOC, LOAD, READONLY, CODE
 27 .text._write_r 00000024  080044e4  080044e4  000054e4  2**2
                  CONTENTS, ALLOC, LOAD, READONLY, CODE
 28 .text.__errno 0000000c  08004508  08004508  00005508  2**2
                  CONTENTS, ALLOC, LOAD, READONLY, CODE
 29 .text.__retarget_lock_init 00000002  08004514  08004514  00005514  2**1
                  CONTENTS, ALLOC, LOAD, READONLY, CODE
 30 .text.__retarget_lock_init_recursive 00000002  08004516  08004516  00005516  2**1
                  CONTENTS, ALLOC, LOAD, READONLY, CODE
 31 .text.__retarget_lock_close 00000002  08004518  08004518  00005518  2**1
                  CONTENTS, ALLOC, LOAD, READONLY, CODE
 32 .text.__retarget_lock_close_recursive 00000002  0800451a  0800451a  0000551a  2**1
                  CONTENTS, ALLOC, LOAD, READONLY, CODE
 33 .text.__retarget_lock_acquire 00000002  0800451c  0800451c  0000551c  2**1
                  CONTENTS, ALLOC, LOAD, READONLY, CODE
 34 .text.__retarget_lock_acquire_recursive 00000002  0800451e  0800451e  0000551e  2**1
                  CONTENTS, ALLOC, LOAD, READONLY, CODE
 35 .text.__retarget_lock_try_acquire 00000004  08004520  08004520  00005520  2**1
                  CONTENTS, ALLOC, LOAD, READONLY, CODE
 36 .text.__retarget_lock_try_acquire_recursive 00000004  08004524  08004524  00005524  2**1
                  CONTENTS, ALLOC, LOAD, READONLY, CODE
 37 .text.__retarget_lock_release 00000002  08004528  08004528  00005528  2**1
                  CONTENTS, ALLOC, LOAD, READONLY, CODE
 38 .text.__retarget_lock_release_recursive 00000002  0800452a  0800452a  0000552a  2**1
                  CONTENTS, ALLOC, LOAD, READONLY, CODE
 39 .text.quorem  00000110  0800452c  0800452c  0000552c  2**1
                  CONTENTS, ALLOC, LOAD, READONLY, CODE
 40 .text._dtoa_r 00000bac  08004640  08004640  00005640  2**3
                  CONTENTS, ALLOC, LOAD, READONLY, CODE
 41 .text._free_r 00000098  080051ec  080051ec  000061ec  2**2
                  CONTENTS, ALLOC, LOAD, READONLY, CODE
 42 .text.malloc  00000010  08005284  08005284  00006284  2**2
                  CONTENTS, ALLOC, LOAD, READONLY, CODE
 43 .text.free    00000010  08005294  08005294  00006294  2**2
                  CONTENTS, ALLOC, LOAD, READONLY, CODE
 44 .text.sbrk_aligned 00000044  080052a4  080052a4  000062a4  2**2
                  CONTENTS, ALLOC, LOAD, READONLY, CODE
 45 .text._malloc_r 000000f8  080052e8  080052e8  000062e8  2**2
                  CONTENTS, ALLOC, LOAD, READONLY, CODE
 46 .text.__malloc_lock 0000000c  080053e0  080053e0  000063e0  2**2
                  CONTENTS, ALLOC, LOAD, READONLY, CODE
 47 .text.__malloc_unlock 0000000c  080053ec  080053ec  000063ec  2**2
                  CONTENTS, ALLOC, LOAD, READONLY, CODE
 48 .text._Balloc 0000007c  080053f8  080053f8  000063f8  2**2
                  CONTENTS, ALLOC, LOAD, READONLY, CODE
 49 .text._Bfree  00000044  08005474  08005474  00006474  2**2
                  CONTENTS, ALLOC, LOAD, READONLY, CODE
 50 .text.__multadd 0000008c  080054b8  080054b8  000064b8  2**2
                  CONTENTS, ALLOC, LOAD, READONLY, CODE
 51 .text.__s2b   00000094  08005544  08005544  00006544  2**2
                  CONTENTS, ALLOC, LOAD, READONLY, CODE
 52 .text.__hi0bits 0000003c  080055d8  080055d8  000065d8  2**1
                  CONTENTS, ALLOC, LOAD, READONLY, CODE
 53 .text.__lo0bits 0000005c  08005614  08005614  00006614  2**1
                  CONTENTS, ALLOC, LOAD, READONLY, CODE
 54 .text.__i2b   0000002c  08005670  08005670  00006670  2**2
                  CONTENTS, ALLOC, LOAD, READONLY, CODE
 55 .text.__multiply 0000016c  0800569c  0800569c  0000669c  2**2
                  CONTENTS, ALLOC, LOAD, READONLY, CODE
 56 .text.__pow5mult 000000b8  08005808  08005808  00006808  2**2
                  CONTENTS, ALLOC, LOAD, READONLY, CODE
 57 .text.__lshift 000000e4  080058c0  080058c0  000068c0  2**2
                  CONTENTS, ALLOC, LOAD, READONLY, CODE
 58 .text.__mcmp  00000036  080059a4  080059a4  000069a4  2**1
                  CONTENTS, ALLOC, LOAD, READONLY, CODE
 59 .text.__mdiff 00000130  080059dc  080059dc  000069dc  2**2
                  CONTENTS, ALLOC, LOAD, READONLY, CODE
 60 .text.__ulp   0000004c  08005b0c  08005b0c  00006b0c  2**2
                  CONTENTS, ALLOC, LOAD, READONLY, CODE
 61 .text.__b2d   00000092  08005b58  08005b58  00006b58  2**1
                  CONTENTS, ALLOC, LOAD, READONLY, CODE
 62 .text.__d2b   000000b0  08005bec  08005bec  00006bec  2**2
                  CONTENTS, ALLOC, LOAD, READONLY, CODE
 63 .text.__ratio 00000062  08005c9c  08005c9c  00006c9c  2**1
                  CONTENTS, ALLOC, LOAD, READONLY, CODE
 64 .text._mprec_log10 0000003c  08005d00  08005d00  00006d00  2**2
                  CONTENTS, ALLOC, LOAD, READONLY, CODE
 65 .text.__copybits 00000046  08005d3c  08005d3c  00006d3c  2**1
                  CONTENTS, ALLOC, LOAD, READONLY, CODE
 66 .text.__any_on 00000042  08005d82  08005d82  00006d82  2**1
                  CONTENTS, ALLOC, LOAD, READONLY, CODE
 67 .text.__ssputs_r 000000c0  08005dc4  08005dc4  00006dc4  2**1
                  CONTENTS, ALLOC, LOAD, READONLY, CODE
 68 .text.__ssprint_r 000000f4  08005e84  08005e84  00006e84  2**1
                  CONTENTS, ALLOC, LOAD, READONLY, CODE
 69 .text._svfprintf_r 000001f0  08005f78  08005f78  00006f78  2**2
                  CONTENTS, ALLOC, LOAD, READONLY, CODE
 70 .text._sungetc_r 0000007a  08006168  08006168  00007168  2**1
                  CONTENTS, ALLOC, LOAD, READONLY, CODE
 71 .text.__ssrefill_r 0000003a  080061e2  080061e2  000071e2  2**1
                  CONTENTS, ALLOC, LOAD, READONLY, CODE
 72 .text.__ssvfscanf_r 000002e8  0800621c  0800621c  0000721c  2**2
                  CONTENTS, ALLOC, LOAD, READONLY, CODE
 73 .text.__sfputc_r 0000002a  08006504  08006504  00007504  2**1
                  CONTENTS, ALLOC, LOAD, READONLY, CODE
 74 .text.__sfputs_r 00000024  0800652e  0800652e  0000752e  2**1
                  CONTENTS, ALLOC, LOAD, READONLY, CODE
 75 .text.__sprint_r 0000001a  08006552  08006552  00007552  2**1
                  CONTENTS, ALLOC, LOAD, READONLY, CODE
 76 .text._vfprintf_r 00000228  0800656c  0800656c  0000756c  2**2
                  CONTENTS, ALLOC, LOAD, READONLY, CODE
 77 .text.vfprintf 00000014  08006794  08006794  00007794  2**2
                  CONTENTS, ALLOC, LOAD, READONLY, CODE
 78 .text._scanf_chars 000000b4  080067a8  080067a8  000077a8  2**2
                  CONTENTS, ALLOC, LOAD, READONLY, CODE
 79 .text._scanf_i 000001d8  0800685c  0800685c  0000785c  2**2
                  CONTENTS, ALLOC, LOAD, READONLY, CODE
 80 .text.__sflush_r 00000100  08006a34  08006a34  00007a34  2**2
                  CONTENTS, ALLOC, LOAD, READONLY, CODE
 81 .text._fflush_r 00000050  08006b34  08006b34  00007b34  2**1
                  CONTENTS, ALLOC, LOAD, READONLY, CODE
 82 .text.fflush  00000028  08006b84  08006b84  00007b84  2**2
                  CONTENTS, ALLOC, LOAD, READONLY, CODE
 83 .text.std     0000006c  08006bac  08006bac  00007bac  2**2
                  CONTENTS, ALLOC, LOAD, READONLY, CODE
 84 .text.stdio_exit_handler 00000018  08006c18  08006c18  00007c18  2**2
                  CONTENTS, ALLOC, LOAD, READONLY, CODE
 85 .text.cleanup_stdio 00000040  08006c30  08006c30  00007c30  2**2
                  CONTENTS, ALLOC, LOAD, READONLY, CODE
 86 .text.__fp_lock 00000018  08006c70  08006c70  00007c70  2**1
                  CONTENTS, ALLOC, LOAD, READONLY, CODE
 87 .text.__fp_unlock 00000018  08006c88  08006c88  00007c88  2**1
                  CONTENTS, ALLOC, LOAD, READONLY, CODE
 88 .text.global_stdio_init.part.0 00000040  08006ca0  08006ca0  00007ca0  2**2
                  CONTENTS, ALLOC, LOAD, READONLY, CODE
 89 .text.__sfp_lock_acquire 0000000c  08006ce0  08006ce0  00007ce0  2**2
                  CONTENTS, ALLOC, LOAD, READONLY, CODE
 90 .text.__sfp_lock_release 0000000c  08006cec  08006cec  00007cec  2**2
                  CONTENTS, ALLOC, LOAD, READONLY, CODE
 91 .text.__sfp   000000a4  08006cf8  08006cf8  00007cf8  2**2
                  CONTENTS, ALLOC, LOAD, READONLY, CODE
 92 .text.__sinit 00000030  08006d9c  08006d9c  00007d9c  2**2
                  CONTENTS, ALLOC, LOAD, READONLY, CODE
 93 .text.__fp_lock_all 0000001c  08006dcc  08006dcc  00007dcc  2**2
                  CONTENTS, ALLOC, LOAD, READONLY, CODE
 94 .text.__fp_unlock_all 0000001c  08006de8  08006de8  00007de8  2**2
                  CONTENTS, ALLOC, LOAD, READONLY, CODE
 95 .text.__sfvwrite_r 000002a0  08006e04  08006e04  00007e04  2**2
                  CONTENTS, ALLOC, LOAD, READONLY, CODE
 96 .text._fwalk_sglue 0000003a  080070a4  080070a4  000080a4  2**1
                  CONTENTS, ALLOC, LOAD, READONLY, CODE
 97 .text.__swhatbuf_r 00000048  080070de  080070de  000080de  2**1
                  CONTENTS, ALLOC, LOAD, READONLY, CODE
 98 .text.__smakebuf_r 00000072  08007126  08007126  00008126  2**1
                  CONTENTS, ALLOC, LOAD, READONLY, CODE
 99 .text.__sccl  00000072  08007198  08007198  00008198  2**1
                  CONTENTS, ALLOC, LOAD, READONLY, CODE
100 .text.__submore 00000074  0800720a  0800720a  0000820a  2**1
                  CONTENTS, ALLOC, LOAD, READONLY, CODE
101 .text._ungetc_r 00000100  0800727e  0800727e  0000827e  2**1
                  CONTENTS, ALLOC, LOAD, READONLY, CODE
102 .text.ungetc  00000010  08007380  08007380  00008380  2**2
                  CONTENTS, ALLOC, LOAD, READONLY, CODE
103 .text.__swbuf_r 0000007a  08007390  08007390  00008390  2**1
                  CONTENTS, ALLOC, LOAD, READONLY, CODE
104 .text.__swbuf 00000010  0800740c  0800740c  0000840c  2**2
                  CONTENTS, ALLOC, LOAD, READONLY, CODE
105 .text.__swsetup_r 000000a8  0800741c  0800741c  0000841c  2**2
                  CONTENTS, ALLOC, LOAD, READONLY, CODE
106 .text.memmove 00000032  080074c4  080074c4  000084c4  2**1
                  CONTENTS, ALLOC, LOAD, READONLY, CODE
107 .text.memset  00000010  080074f6  080074f6  000084f6  2**1
                  CONTENTS, ALLOC, LOAD, READONLY, CODE
108 .text._setlocale_r 0000003c  08007508  08007508  00008508  2**2
                  CONTENTS, ALLOC, LOAD, READONLY, CODE
109 .text.__locale_mb_cur_max 0000000c  08007544  08007544  00008544  2**2
                  CONTENTS, ALLOC, LOAD, READONLY, CODE
110 .text.setlocale 00000010  08007550  08007550  00008550  2**2
                  CONTENTS, ALLOC, LOAD, READONLY, CODE
111 .text._fstat_r 00000024  08007560  08007560  00008560  2**2
                  CONTENTS, ALLOC, LOAD, READONLY, CODE
112 .text._isatty_r 00000020  08007584  08007584  00008584  2**2
                  CONTENTS, ALLOC, LOAD, READONLY, CODE
113 .text._sbrk_r 00000020  080075a4  080075a4  000085a4  2**2
                  CONTENTS, ALLOC, LOAD, READONLY, CODE
114 .text.memcpy  0000001c  080075c4  080075c4  000085c4  2**1
                  CONTENTS, ALLOC, LOAD, READONLY, CODE
115 .text.__assert_func 0000003c  080075e0  080075e0  000085e0  2**2
                  CONTENTS, ALLOC, LOAD, READONLY, CODE
116 .text.__assert 0000000a  0800761c  0800761c  0000861c  2**1
                  CONTENTS, ALLOC, LOAD, READONLY, CODE
117 .text._calloc_r 00000028  08007626  08007626  00008626  2**1
                  CONTENTS, ALLOC, LOAD, READONLY, CODE
118 .text._mbtowc_r 00000010  08007650  08007650  00008650  2**2
                  CONTENTS, ALLOC, LOAD, READONLY, CODE
119 .text.__ascii_mbtowc 00000024  08007660  08007660  00008660  2**1
                  CONTENTS, ALLOC, LOAD, READONLY, CODE
120 .text._realloc_r 0000005c  08007684  08007684  00008684  2**1
                  CONTENTS, ALLOC, LOAD, READONLY, CODE
121 .text._strtol_l.isra.0 000000f4  080076e0  080076e0  000086e0  2**2
                  CONTENTS, ALLOC, LOAD, READONLY, CODE
122 .text._strtol_r 00000004  080077d4  080077d4  000087d4  2**1
                  CONTENTS, ALLOC, LOAD, READONLY, CODE
123 .text.strtol_l 00000014  080077d8  080077d8  000087d8  2**2
                  CONTENTS, ALLOC, LOAD, READONLY, CODE
124 .text.strtol  00000014  080077ec  080077ec  000087ec  2**2
                  CONTENTS, ALLOC, LOAD, READONLY, CODE
125 .text._strtoul_l.isra.0 000000dc  08007800  08007800  00008800  2**2
                  CONTENTS, ALLOC, LOAD, READONLY, CODE
126 .text._strtoul_r 00000004  080078dc  080078dc  000088dc  2**1
                  CONTENTS, ALLOC, LOAD, READONLY, CODE
127 .text.strtoul_l 00000014  080078e0  080078e0  000088e0  2**2
                  CONTENTS, ALLOC, LOAD, READONLY, CODE
128 .text.strtoul 00000014  080078f4  080078f4  000088f4  2**2
                  CONTENTS, ALLOC, LOAD, READONLY, CODE
129 .text._wctomb_r 00000010  08007908  08007908  00008908  2**2
                  CONTENTS, ALLOC, LOAD, READONLY, CODE
130 .text.__ascii_wctomb 0000001a  08007918  08007918  00008918  2**1
                  CONTENTS, ALLOC, LOAD, READONLY, CODE
131 .text._fprintf_r 0000001a  08007932  08007932  00008932  2**1
                  CONTENTS, ALLOC, LOAD, READONLY, CODE
132 .text.fprintf 00000024  0800794c  0800794c  0000894c  2**2
                  CONTENTS, ALLOC, LOAD, READONLY, CODE
133 .text.abort   0000000e  08007970  08007970  00008970  2**1
                  CONTENTS, ALLOC, LOAD, READONLY, CODE
134 .text._malloc_usable_size_r 00000010  0800797e  0800797e  0000897e  2**1
                  CONTENTS, ALLOC, LOAD, READONLY, CODE
135 .text._init_signal_r 00000028  0800798e  0800798e  0000898e  2**1
                  CONTENTS, ALLOC, LOAD, READONLY, CODE
136 .text._signal_r 00000030  080079b6  080079b6  000089b6  2**1
                  CONTENTS, ALLOC, LOAD, READONLY, CODE
137 .text._raise_r 00000050  080079e6  080079e6  000089e6  2**1
                  CONTENTS, ALLOC, LOAD, READONLY, CODE
138 .text.__sigtramp_r 00000048  08007a36  08007a36  00008a36  2**1
                  CONTENTS, ALLOC, LOAD, READONLY, CODE
139 .text.raise   00000010  08007a80  08007a80  00008a80  2**2
                  CONTENTS, ALLOC, LOAD, READONLY, CODE
140 .text.signal  00000010  08007a90  08007a90  00008a90  2**2
                  CONTENTS, ALLOC, LOAD, READONLY, CODE
141 .text._init_signal 0000000c  08007aa0  08007aa0  00008aa0  2**2
                  CONTENTS, ALLOC, LOAD, READONLY, CODE
142 .text.__sigtramp 00000010  08007aac  08007aac  00008aac  2**2
                  CONTENTS, ALLOC, LOAD, READONLY, CODE
143 .text._kill_r 00000024  08007abc  08007abc  00008abc  2**2
                  CONTENTS, ALLOC, LOAD, READONLY, CODE
144 .text._getpid_r 00000004  08007ae0  08007ae0  00008ae0  2**1
                  CONTENTS, ALLOC, LOAD, READONLY, CODE
145 .text._exit   00000004  08007ae4  08007ae4  00008ae4  2**2
                  CONTENTS, ALLOC, LOAD, READONLY, CODE
146 .ARM.extab    00000000  08007ae8  08007ae8  00008ae8  2**0
                  CONTENTS, ALLOC, LOAD, READONLY, DATA
147 .ARM.exidx    00000008  08007ae8  08007ae8  00008ae8  2**2
                  CONTENTS, ALLOC, LOAD, READONLY, DATA
148 .rodata       00000910  08007af0  08007af0  00008af0  2**3
                  CONTENTS, ALLOC, LOAD, READONLY, DATA
149 .data         000001d4  20000000  08008400  0000a000  2**2
                  CONTENTS, ALLOC, LOAD, DATA
150 .bss          0000018c  200001d4  080085d4  0000a1d4  2**2
                  ALLOC
151 .debug_info   00008027  00000000  00000000  0000a1d4  2**0
                  CONTENTS, READONLY, DEBUGGING, OCTETS
152 .debug_abbrev 00001c7b  00000000  00000000  000121fb  2**0
                  CONTENTS, READONLY, DEBUGGING, OCTETS
153 .debug_loclists 0000158a  00000000  00000000  00013e76  2**0
                  CONTENTS, READONLY, DEBUGGING, OCTETS
154 .debug_aranges 00000240  00000000  00000000  00015400  2**3
                  CONTENTS, READONLY, DEBUGGING, OCTETS
155 .debug_line   00005c85  00000000  00000000  00015640  2**0
                  CONTENTS, READONLY, DEBUGGING, OCTETS
156 .debug_str    00001549  00000000  00000000  0001b2c5  2**0
                  CONTENTS, READONLY, DEBUGGING, OCTETS
157 .comment      00000045  00000000  00000000  0001c80e  2**0
                  CONTENTS, READONLY
158 .ARM.attributes 00000032  00000000  00000000  0001c853  2**0
                  CONTENTS, READONLY
159 .debug_frame  00001f74  00000000  00000000  0001c888  2**2
                  CONTENTS, READONLY, DEBUGGING, OCTETS
160 .debug_rnglists 000005aa  00000000  00000000  0001e7fc  2**0
                  CONTENTS, READONLY, DEBUGGING, OCTETS
161 .debug_line_str 0000023b  00000000  00000000  0001eda6  2**0
                  CONTENTS, READONLY, DEBUGGING, OCTETS
SYMBOL TABLE:
08000000 l    d  .text	00000000 .text
08003750 l    d  .text.__cvt	00000000 .text.__cvt
0800380e l    d  .text.__exponent	00000000 .text.__exponent
08003884 l    d  .text._printf_float	00000000 .text._printf_float
08003ccc l    d  .text._printf_common	00000000 .text._printf_common
08003db8 l    d  .text._printf_i	00000000 .text._printf_i
0800400c l    d  .text._printf_r	00000000 .text._printf_r
08004028 l    d  .text.printf	00000000 .text.printf
0800404c l    d  .text.setvbuf	00000000 .text.setvbuf
080041b4 l    d  .text._sprintf_r	00000000 .text._sprintf_r
080041f0 l    d  .text.sprintf	00000000 .text.sprintf
08004234 l    d  .text.sscanf	00000000 .text.sscanf
0800428c l    d  .text._sscanf_r	00000000 .text._sscanf_r
080042e0 l    d  .text.__sread	00000000 .text.__sread
08004302 l    d  .text.__seofread	00000000 .text.__seofread
08004306 l    d  .text.__swrite	00000000 .text.__swrite
0800433e l    d  .text.__sseek	00000000 .text.__sseek
08004364 l    d  .text.__sclose	00000000 .text.__sclose
0800436c l    d  .text._vsprintf_r	00000000 .text._vsprintf_r
08004398 l    d  .text.vsprintf	00000000 .text.vsprintf
080043ac l    d  .text.__localeconv_l	00000000 .text.__localeconv_l
080043b0 l    d  .text._localeconv_r	00000000 .text._localeconv_r
080043b8 l    d  .text.localeconv	00000000 .text.localeconv
080043c0 l    d  .text._close_r	00000000 .text._close_r
080043e0 l    d  .text._reclaim_reent	00000000 .text._reclaim_reent
0800449c l    d  .text._lseek_r	00000000 .text._lseek_r
080044c0 l    d  .text._read_r	00000000 .text._read_r
080044e4 l    d  .text._write_r	00000000 .text._write_r
08004508 l    d  .text.__errno	00000000 .text.__errno
08004514 l    d  .text.__retarget_lock_init	00000000 .text.__retarget_lock_init
08004516 l    d  .text.__retarget_lock_init_recursive	00000000 .text.__retarget_lock_init_recursive
08004518 l    d  .text.__retarget_lock_close	00000000 .text.__retarget_lock_close
0800451a l    d  .text.__retarget_lock_close_recursive	00000000 .text.__retarget_lock_close_recursive
0800451c l    d  .text.__retarget_lock_acquire	00000000 .text.__retarget_lock_acquire
0800451e l    d  .text.__retarget_lock_acquire_recursive	00000000 .text.__retarget_lock_acquire_recursive
08004520 l    d  .text.__retarget_lock_try_acquire	00000000 .text.__retarget_lock_try_acquire
08004524 l    d  .text.__retarget_lock_try_acquire_recursive	00000000 .text.__retarget_lock_try_acquire_recursive
08004528 l    d  .text.__retarget_lock_release	00000000 .text.__retarget_lock_release
0800452a l    d  .text.__retarget_lock_release_recursive	00000000 .text.__retarget_lock_release_recursive
0800452c l    d  .text.quorem	00000000 .text.quorem
08004640 l    d  .text._dtoa_r	00000000 .text._dtoa_r
080051ec l    d  .text._free_r	00000000 .text._free_r
08005284 l    d  .text.malloc	00000000 .text.malloc
08005294 l    d  .text.free	00000000 .text.free
080052a4 l    d  .text.sbrk_aligned	00000000 .text.sbrk_aligned
080052e8 l    d  .text._malloc_r	00000000 .text._malloc_r
080053e0 l    d  .text.__malloc_lock	00000000 .text.__malloc_lock
080053ec l    d  .text.__malloc_unlock	00000000 .text.__malloc_unlock
080053f8 l    d  .text._Balloc	00000000 .text._Balloc
08005474 l    d  .text._Bfree	00000000 .text._Bfree
080054b8 l    d  .text.__multadd	00000000 .text.__multadd
08005544 l    d  .text.__s2b	00000000 .text.__s2b
080055d8 l    d  .text.__hi0bits	00000000 .text.__hi0bits
08005614 l    d  .text.__lo0bits	00000000 .text.__lo0bits
08005670 l    d  .text.__i2b	00000000 .text.__i2b
0800569c l    d  .text.__multiply	00000000 .text.__multiply
08005808 l    d  .text.__pow5mult	00000000 .text.__pow5mult
080058c0 l    d  .text.__lshift	00000000 .text.__lshift
080059a4 l    d  .text.__mcmp	00000000 .text.__mcmp
080059dc l    d  .text.__mdiff	00000000 .text.__mdiff
08005b0c l    d  .text.__ulp	00000000 .text.__ulp
08005b58 l    d  .text.__b2d	00000000 .text.__b2d
08005bec l    d  .text.__d2b	00000000 .text.__d2b
08005c9c l    d  .text.__ratio	00000000 .text.__ratio
08005d00 l    d  .text._mprec_log10	00000000 .text._mprec_log10
08005d3c l    d  .text.__copybits	00000000 .text.__copybits
08005d82 l    d  .text.__any_on	00000000 .text.__any_on
08005dc4 l    d  .text.__ssputs_r	00000000 .text.__ssputs_r
08005e84 l    d  .text.__ssprint_r	00000000 .text.__ssprint_r
08005f78 l    d  .text._svfprintf_r	00000000 .text._svfprintf_r
08006168 l    d  .text._sungetc_r	00000000 .text._sungetc_r
080061e2 l    d  .text.__ssrefill_r	00000000 .text.__ssrefill_r
0800621c l    d  .text.__ssvfscanf_r	00000000 .text.__ssvfscanf_r
08006504 l    d  .text.__sfputc_r	00000000 .text.__sfputc_r
0800652e l    d  .text.__sfputs_r	00000000 .text.__sfputs_r
08006552 l    d  .text.__sprint_r	00000000 .text.__sprint_r
0800656c l    d  .text._vfprintf_r	00000000 .text._vfprintf_r
08006794 l    d  .text.vfprintf	00000000 .text.vfprintf
080067a8 l    d  .text._scanf_chars	00000000 .text._scanf_chars
0800685c l    d  .text._scanf_i	00000000 .text._scanf_i
08006a34 l    d  .text.__sflush_r	00000000 .text.__sflush_r
08006b34 l    d  .text._fflush_r	00000000 .text._fflush_r
08006b84 l    d  .text.fflush	00000000 .text.fflush
08006bac l    d  .text.std	00000000 .text.std
08006c18 l    d  .text.stdio_exit_handler	00000000 .text.stdio_exit_handler
08006c30 l    d  .text.cleanup_stdio	00000000 .text.cleanup_stdio
08006c70 l    d  .text.__fp_lock	00000000 .text.__fp_lock
08006c88 l    d  .text.__fp_unlock	00000000 .text.__fp_unlock
08006ca0 l    d  .text.global_stdio_init.part.0	00000000 .text.global_stdio_init.part.0
08006ce0 l    d  .text.__sfp_lock_acquire	00000000 .text.__sfp_lock_acquire
08006cec l    d  .text.__sfp_lock_release	00000000 .text.__sfp_lock_release
08006cf8 l    d  .text.__sfp	00000000 .text.__sfp
08006d9c l    d  .text.__sinit	00000000 .text.__sinit
08006dcc l    d  .text.__fp_lock_all	00000000 .text.__fp_lock_all
08006de8 l    d  .text.__fp_unlock_all	00000000 .text.__fp_unlock_all
08006e04 l    d  .text.__sfvwrite_r	00000000 .text.__sfvwrite_r
080070a4 l    d  .text._fwalk_sglue	00000000 .text._fwalk_sglue
080070de l    d  .text.__swhatbuf_r	00000000 .text.__swhatbuf_r
08007126 l    d  .text.__smakebuf_r	00000000 .text.__smakebuf_r
08007198 l    d  .text.__sccl	00000000 .text.__sccl
0800720a l    d  .text.__submore	00000000 .text.__submore
0800727e l    d  .text._ungetc_r	00000000 .text._ungetc_r
08007380 l    d  .text.ungetc	00000000 .text.ungetc
08007390 l    d  .text.__swbuf_r	00000000 .text.__swbuf_r
0800740c l    d  .text.__swbuf	00000000 .text.__swbuf
0800741c l    d  .text.__swsetup_r	00000000 .text.__swsetup_r
080074c4 l    d  .text.memmove	00000000 .text.memmove
080074f6 l    d  .text.memset	00000000 .text.memset
08007508 l    d  .text._setlocale_r	00000000 .text._setlocale_r
08007544 l    d  .text.__locale_mb_cur_max	00000000 .text.__locale_mb_cur_max
08007550 l    d  .text.setlocale	00000000 .text.setlocale
08007560 l    d  .text._fstat_r	00000000 .text._fstat_r
08007584 l    d  .text._isatty_r	00000000 .text._isatty_r
080075a4 l    d  .text._sbrk_r	00000000 .text._sbrk_r
080075c4 l    d  .text.memcpy	00000000 .text.memcpy
080075e0 l    d  .text.__assert_func	00000000 .text.__assert_func
0800761c l    d  .text.__assert	00000000 .text.__assert
08007626 l    d  .text._calloc_r	00000000 .text._calloc_r
08007650 l    d  .text._mbtowc_r	00000000 .text._mbtowc_r
08007660 l    d  .text.__ascii_mbtowc	00000000 .text.__ascii_mbtowc
08007684 l    d  .text._realloc_r	00000000 .text._realloc_r
080076e0 l    d  .text._strtol_l.isra.0	00000000 .text._strtol_l.isra.0
080077d4 l    d  .text._strtol_r	00000000 .text._strtol_r
080077d8 l    d  .text.strtol_l	00000000 .text.strtol_l
080077ec l    d  .text.strtol	00000000 .text.strtol
08007800 l    d  .text._strtoul_l.isra.0	00000000 .text._strtoul_l.isra.0
080078dc l    d  .text._strtoul_r	00000000 .text._strtoul_r
080078e0 l    d  .text.strtoul_l	00000000 .text.strtoul_l
080078f4 l    d  .text.strtoul	00000000 .text.strtoul
08007908 l    d  .text._wctomb_r	00000000 .text._wctomb_r
08007918 l    d  .text.__ascii_wctomb	00000000 .text.__ascii_wctomb
08007932 l    d  .text._fprintf_r	00000000 .text._fprintf_r
0800794c l    d  .text.fprintf	00000000 .text.fprintf
08007970 l    d  .text.abort	00000000 .text.abort
0800797e l    d  .text._malloc_usable_size_r	00000000 .text._malloc_usable_size_r
0800798e l    d  .text._init_signal_r	00000000 .text._init_signal_r
080079b6 l    d  .text._signal_r	00000000 .text._signal_r
080079e6 l    d  .text._raise_r	00000000 .text._raise_r
08007a36 l    d  .text.__sigtramp_r	00000000 .text.__sigtramp_r
08007a80 l    d  .text.raise	00000000 .text.raise
08007a90 l    d  .text.signal	00000000 .text.signal
08007aa0 l    d  .text._init_signal	00000000 .text._init_signal
08007aac l    d  .text.__sigtramp	00000000 .text.__sigtramp
08007abc l    d  .text._kill_r	00000000 .text._kill_r
08007ae0 l    d  .text._getpid_r	00000000 .text._getpid_r
08007ae4 l    d  .text._exit	00000000 .text._exit
08007ae8 l    d  .ARM.extab	00000000 .ARM.extab
08007ae8 l    d  .ARM.exidx	00000000 .ARM.exidx
08007af0 l    d  .rodata	00000000 .rodata
20000000 l    d  .data	00000000 .data
200001d4 l    d  .bss	00000000 .bss
00000000 l    d  .debug_info	00000000 .debug_info
00000000 l    d  .debug_abbrev	00000000 .debug_abbrev
00000000 l    d  .debug_loclists	00000000 .debug_loclists
00000000 l    d  .debug_aranges	00000000 .debug_aranges
00000000 l    d  .debug_line	00000000 .debug_line
00000000 l    d  .debug_str	00000000 .debug_str
00000000 l    d  .comment	00000000 .comment
00000000 l    d  .ARM.attributes	00000000 .ARM.attributes
00000000 l    d  .debug_frame	00000000 .debug_frame
00000000 l    d  .debug_rnglists	00000000 .debug_rnglists
00000000 l    d  .debug_line_str	00000000 .debug_line_str
00000000 l    df *ABS*	00000000 crt0.o
4002001c l       *ABS*	00000000 GPIOA_LCKR
40023830 l       *ABS*	00000000 RCC_AHB1ENR
00000000 l    df *ABS*	00000000 alarm.c
00000000 l    df *ABS*	00000000 buzzer.c
00000000 l    df *ABS*	00000000 clock.c
00000000 l    df *ABS*	00000000 exception.c
00000000 l    df *ABS*	00000000 key.c
00000000 l    df *ABS*	00000000 lcd.c
080006f0 l     F .text	0000017c LCD_Send_To.constprop.0
00000000 l    df *ABS*	00000000 lcd_status.c
00000000 l    df *ABS*	00000000 led.c
00000000 l    df *ABS*	00000000 main.c
20000000 l     O .data	00000004 last_sec.0
00000000 l    df *ABS*	00000000 motor.c
08007af0 l     O .rodata	00000010 CSWTCH.17
20000004 l     O .data	00000004 Motor_Percent
200001e4 l     O .bss	00000004 current_step.1
200001e8 l     O .bss	00000004 current_step.0
200001ec l     O .bss	00000004 Motor_Dir
00000000 l    df *ABS*	00000000 runtime.c
200001f0 l     O .bss	00000004 heap.0
00000000 l    df *ABS*	00000000 status_led.c
00000000 l    df *ABS*	00000000 system_stm32f4xx.c
00000000 l    df *ABS*	00000000 systick.c
00000000 l    df *ABS*	00000000 timer.c
00000000 l    df *ABS*	00000000 uart.c
00000000 l    df *ABS*	00000000 ultrasonic.c
00000000 l    df *ABS*	00000000 nano-vfprintf_float.c
00000000 l    df *ABS*	00000000 nano-vfprintf_i.c
00000000 l    df *ABS*	00000000 printf.c
00000000 l    df *ABS*	00000000 setvbuf.c
00000000 l    df *ABS*	00000000 sprintf.c
00000000 l    df *ABS*	00000000 sscanf.c
00000000 l    df *ABS*	00000000 stdio.c
00000000 l    df *ABS*	00000000 vsprintf.c
00000000 l    df *ABS*	00000000 localeconv.c
00000000 l    df *ABS*	00000000 closer.c
00000000 l    df *ABS*	00000000 reent.c
00000000 l    df *ABS*	00000000 impure.c
00000000 l    df *ABS*	00000000 lseekr.c
00000000 l    df *ABS*	00000000 readr.c
00000000 l    df *ABS*	00000000 writer.c
00000000 l    df *ABS*	00000000 errno.c
00000000 l    df *ABS*	00000000 lock.c
00000000 l    df *ABS*	00000000 libc_a-memchr.o
00000000 l    df *ABS*	00000000 libc_a-strlen.o
00000000 l    df *ABS*	00000000 dtoa.c
0800452c l     F .text.quorem	00000110 quorem
00000000 l    df *ABS*	00000000 freer.c
00000000 l    df *ABS*	00000000 malloc.c
00000000 l    df *ABS*	00000000 mallocr.c
080052a4 l     F .text.sbrk_aligned	00000044 sbrk_aligned
00000000 l    df *ABS*	00000000 mlock.c
00000000 l    df *ABS*	00000000 mprec.c
080081d4 l     O .rodata	0000000c p05.0
00000000 l    df *ABS*	00000000 nano-svfprintf.c
00000000 l    df *ABS*	00000000 nano-svfscanf.c
00000000 l    df *ABS*	00000000 nano-vfprintf.c
08006504 l     F .text.__sfputc_r	0000002a __sfputc_r
00000000 l    df *ABS*	00000000 nano-vfscanf_i.c
00000000 l    df *ABS*	00000000 fflush.c
00000000 l    df *ABS*	00000000 findfp.c
08006bac l     F .text.std	0000006c std
08006c18 l     F .text.stdio_exit_handler	00000018 stdio_exit_handler
08006c30 l     F .text.cleanup_stdio	00000040 cleanup_stdio
08006c70 l     F .text.__fp_lock	00000018 __fp_lock
08006c88 l     F .text.__fp_unlock	00000018 __fp_unlock
08006ca0 l     F .text.global_stdio_init.part.0	00000040 global_stdio_init.part.0
00000000 l    df *ABS*	00000000 fvwrite.c
00000000 l    df *ABS*	00000000 fwalk.c
00000000 l    df *ABS*	00000000 makebuf.c
00000000 l    df *ABS*	00000000 sccl.c
00000000 l    df *ABS*	00000000 ungetc.c
00000000 l    df *ABS*	00000000 wbuf.c
00000000 l    df *ABS*	00000000 wsetup.c
00000000 l    df *ABS*	00000000 memmove.c
00000000 l    df *ABS*	00000000 memset.c
00000000 l    df *ABS*	00000000 locale.c
00000000 l    df *ABS*	00000000 fstatr.c
00000000 l    df *ABS*	00000000 isattyr.c
00000000 l    df *ABS*	00000000 sbrkr.c
00000000 l    df *ABS*	00000000 libc_a-strcmp.o
00000000 l    df *ABS*	00000000 memcpy-stub.c
00000000 l    df *ABS*	00000000 assert.c
00000000 l    df *ABS*	00000000 callocr.c
00000000 l    df *ABS*	00000000 mbtowc_r.c
00000000 l    df *ABS*	00000000 reallocr.c
00000000 l    df *ABS*	00000000 strtol.c
080076e0 l     F .text._strtol_l.isra.0	000000f4 _strtol_l.isra.0
00000000 l    df *ABS*	00000000 strtoul.c
08007800 l     F .text._strtoul_l.isra.0	000000dc _strtoul_l.isra.0
00000000 l    df *ABS*	00000000 wctomb_r.c
00000000 l    df *ABS*	00000000 ctype_.c
00000000 l    df *ABS*	00000000 fprintf.c
00000000 l    df *ABS*	00000000 abort.c
00000000 l    df *ABS*	00000000 msizer.c
00000000 l    df *ABS*	00000000 signal.c
00000000 l    df *ABS*	00000000 signalr.c
00000000 l    df *ABS*	00000000 _arm_muldf3.o
00000000 l    df *ABS*	00000000 _arm_addsubdf3.o
00000000 l    df *ABS*	00000000 _arm_muldivdf3.o
00000000 l    df *ABS*	00000000 _arm_cmpdf2.o
00000000 l    df *ABS*	00000000 _arm_unorddf2.o
00000000 l    df *ABS*	00000000 _arm_fixdfsi.o
00000000 l    df *ABS*	00000000 _arm_fixunsdfsi.o
00000000 l    df *ABS*	00000000 _exit.c
080005f0 g     F .text	00000030 RTC_Alarm_IRQHandler
0800797e g     F .text._malloc_usable_size_r	00000010 _malloc_usable_size_r
08003750 g     F .text.__cvt	000000be __cvt
08000198  w    F .text	00000000 EXTI2_IRQHandler
08001c80 g     F .text	00000070 Supply_Pill
080067a8 g     F .text._scanf_chars	000000b4 _scanf_chars
08007b10 g     O .rodata	00000008 APBPrescTable
08005d00 g     F .text._mprec_log10	0000003c _mprec_log10
08003694 g     F .text	0000002c .hidden __aeabi_dcmpun
08005d82 g     F .text.__any_on	00000042 __any_on
08007584 g     F .text._isatty_r	00000020 _isatty_r
080081e0 g     O .rodata	00000028 __mprec_tinytens
08003658 g     F .text	00000012 .hidden __aeabi_dcmple
08000620 g     F .text	00000020 Key_Poll_Init
08001ea0 g     F .text	00000004 _getpid
08003594 g     F .text	0000007a .hidden __cmpdf2
0800449c g     F .text._lseek_r	00000024 _lseek_r
08000198  w    F .text	00000000 DebugMon_Handler
080041b4 g     F .text._sprintf_r	0000003c _siprintf_r
0800086c g     F .text	00000078 I2C1_Init
08000198  w    F .text	00000000 SPI4_IRQHandler
08003594 g     F .text	0000007a .hidden __eqdf2
08003104 g     F .text	0000005a .hidden __floatdidf
08007abc g     F .text._kill_r	00000024 _kill_r
08004028 g     F .text.printf	00000024 printf
20000216 g     O .bss	00000001 __lock___atexit_recursive_mutex
08004398 g     F .text.vsprintf	00000014 vsprintf
08000198  w    F .text	00000000 TIM1_CC_IRQHandler
080079b6 g     F .text._signal_r	00000030 _signal_r
0800433e g     F .text.__sseek	00000026 __sseek
08006d9c g     F .text.__sinit	00000030 __sinit
08000198  w    F .text	00000000 DMA2_Stream5_IRQHandler
08007390 g     F .text.__swbuf_r	0000007a __swbuf_r
08000198  w    F .text	00000000 HardFault_Handler
08007508 g     F .text._setlocale_r	0000003c _setlocale_r
08007380 g     F .text.ungetc	00000010 ungetc
08000198  w    F .text	00000000 DMA1_Stream5_IRQHandler
080053ec g     F .text.__malloc_unlock	0000000c __malloc_unlock
080015c0 g     F .text	0000001c LCD_String_To
08000198  w    F .text	00000000 SysTick_Handler
20000210 g     O .bss	00000001 __lock___arc4random_mutex
08000198  w    F .text	00000000 PVD_IRQHandler
08000198  w    F .text	00000000 SDIO_IRQHandler
080074c4 g     F .text.memmove	00000032 memmove
08000198  w    F .text	00000000 TAMP_STAMP_IRQHandler
08000198  w    F .text	00000000 PendSV_Handler
08000198  w    F .text	00000000 NMI_Handler
080053f8 g     F .text._Balloc	0000007c _Balloc
08000198  w    F .text	00000000 EXTI3_IRQHandler
08003584 g     F .text	0000008a .hidden __gtdf2
08004508 g     F .text.__errno	0000000c __errno
08004518 g     F .text.__retarget_lock_close	00000002 __retarget_lock_close
08000b10 g     F .text	00000002 LCD_Send
08002810 g     F .text	0000004c Uart2_Printf
080043ac g     F .text.__localeconv_l	00000004 __localeconv_l
20000358 g     O .bss	00000004 __stdio_exit_handler
08000198  w    F .text	00000000 TIM1_UP_TIM10_IRQHandler
08007560 g     F .text._fstat_r	00000024 _fstat_r
2000020c g     O .bss	00000004 errno
0800685c g     F .text._scanf_i	000001d8 _scanf_i
08004302 g     F .text.__seofread	00000004 __seofread
08003620 g     F .text	00000010 .hidden __aeabi_cdcmple
08002008 g     F .text	00000050 Status_LED_Red
080021d8 g     F .text	00000008 SysTick_Get_Load_Time
08000198  w    F .text	00000000 I2C3_ER_IRQHandler
08001748 g     F .text	00000310 Main
08002278 g     F .text	00000038 TIM2_Stopwatch_Start
08001eb4 g     F .text	00000114 Status_LED_Init
08000b08 g     F .text	00000006 LCD_Data_To
08001cf0 g     F .text	00000018 Motor_Set_Percent
080075c4 g     F .text.memcpy	0000001c memcpy
08003610 g     F .text	00000020 .hidden __aeabi_cdrcmple
200001dc g     O .bss	00000004 current_state
0800404c g     F .text.setvbuf	00000168 setvbuf
08005f78 g     F .text._svfprintf_r	000001f0 _svfprintf_r
0800308c g     F .text	00000022 .hidden __floatsidf
0800358c g     F .text	00000082 .hidden __ltdf2
08000198  w    F .text	00000000 EXTI0_IRQHandler
08000198  w    F .text	00000000 I2C2_EV_IRQHandler
08000198  w    F .text	00000000 DMA1_Stream2_IRQHandler
08000198  w    F .text	00000000 FPU_IRQHandler
20000008 g     O .data	00000004 SystemCoreClock
08005c9c g     F .text.__ratio	00000062 __ratio
0800436c g     F .text._vsprintf_r	0000002c _vsiprintf_r
08000b14 g     F .text	00000004 LCD_Cmd
20000000 g       .data	00000000 __RW_BASE__
08005284 g     F .text.malloc	00000010 malloc
0800400c g     F .text._printf_r	0000001c _printf_r
080079e6 g     F .text._raise_r	00000050 _raise_r
08001e90 g     F .text	0000000a _fstat
080075e0 g     F .text.__assert_func	0000003c __assert_func
08008230 g     O .rodata	000000c8 __mprec_tens
08000198  w    F .text	00000000 UsageFault_Handler
08003710 g     F .text	00000040 .hidden __fixunsdfsi
08000198  w    F .text	00000000 DMA2_Stream2_IRQHandler
080061e2 g     F .text.__ssrefill_r	0000003a __ssrefill_r
08007ae0 g     F .text._getpid_r	00000004 _getpid_r
080078f4 g     F .text.strtoul	00000014 strtoul
0800306c g     F .text	0000001e .hidden __aeabi_ui2d
080043b0 g     F .text._localeconv_r	00000008 _localeconv_r
08006e04 g     F .text.__sfvwrite_r	000002a0 __sfvwrite_r
08005670 g     F .text.__i2b	0000002c __i2b
08007a36 g     F .text.__sigtramp_r	00000048 __sigtramp_r
08000198  w    F .text	00000000 SPI1_IRQHandler
08002de8 g     F .text	00000000 .hidden __aeabi_drsub
080075a4 g     F .text._sbrk_r	00000020 _sbrk_r
080016f4 g     F .text	00000034 LED_Init
080044c0 g     F .text._read_r	00000024 _read_r
08000198  w    F .text	00000000 TIM1_BRK_TIM9_IRQHandler
08002494 g     F .text	00000010 TIM3_Out_Stop
080008e4 g     F .text	0000004c I2C1_Write_Byte_To
08003644 g     F .text	00000012 .hidden __aeabi_dcmplt
0800052c g     F .text	00000060 Clock_Init
08006b84 g     F .text.fflush	00000028 fflush
080027e0 g     F .text	00000030 Uart2_Send_String
080030b0 g     F .text	00000042 .hidden __extendsfdf2
0800621c g     F .text.__ssvfscanf_r	000002e8 __ssvfscanf_r
080033b4 g     F .text	000001d0 .hidden __aeabi_ddiv
08002df4 g     F .text	00000276 .hidden __adddf3
200001d4 g       .data	00000000 __RW_LIMIT__
0800276c g     F .text	0000004c Uart1_Printf
08005b58 g     F .text.__b2d	00000092 __b2d
20000213 g     O .bss	00000001 __lock___env_recursive_mutex
08000198  w    F .text	00000000 DMA2_Stream3_IRQHandler
08003160 g     F .text	00000254 .hidden __aeabi_dmul
08001e9c g     F .text	00000004 _isatty
08000520 g     F .text	0000000c Buzzer_Off
08007684 g     F .text._realloc_r	0000005c _realloc_r
080077d8 g     F .text.strtol_l	00000014 strtol_l
08004398 g     F .text.vsprintf	00000014 vsiprintf
08008208 g     O .rodata	00000028 __mprec_bigtens
08005544 g     F .text.__s2b	00000094 __s2b
08007970 g     F .text.abort	0000000e abort
0800306c g     F .text	0000001e .hidden __floatunsidf
08001e2c g     F .text	00000038 _sbrk
080059a4 g     F .text.__mcmp	00000036 __mcmp
080027b8 g     F .text	00000014 Uart1_Get_Pressed
08006dcc g     F .text.__fp_lock_all	0000001c __fp_lock_all
08001d80 g     F .text	00000054 Move_CW
08000198  w    F .text	00000000 USART6_IRQHandler
08001b4c g     F .text	0000004c Servo_Open_Close
08001d20 g     F .text	00000048 Motor_Apply_Duty
080077ec g     F .text.strtol	00000014 strtol
08000674 g     F .text	0000007c Key_ISR_Enable
0800285c g     F .text	00000002 Process_UART_Input
080043e0 g     F .text._reclaim_reent	000000bc _reclaim_reent
080015a4 g     F .text	0000001a LCD_Set_Cursor
080055d8 g     F .text.__hi0bits	0000003c __hi0bits
08000930 g     F .text	00000048 I2C1_Write_Byte
080036c0 g     F .text	0000004e .hidden __fixdfsi
080023ec g     F .text	00000010 TIM4_Change_Value
20000214 g     O .bss	00000001 __lock___malloc_recursive_mutex
08002058 g     F .text	00000050 Status_LED_Yellow
08000198  w    F .text	00000000 DMA2_Stream0_IRQHandler
20000220 g     O .bss	00000138 __sf
200001f8 g     O .bss	00000014 rx_buffer
080022b0 g     F .text	00000020 TIM2_Stopwatch_Stop
0800794c g     F .text.fprintf	00000024 fprintf
08000198  w    F .text	00000000 TIM4_IRQHandler
08002df4 g     F .text	00000276 .hidden __aeabi_dadd
0800358c g     F .text	00000082 .hidden __ledf2
08005808 g     F .text.__pow5mult	000000b8 __pow5mult
080030f4 g     F .text	0000006a .hidden __aeabi_ul2d
08002a30 g     F .text	000000a0 Ultrasonic_Get_Distance
08000198  w    F .text	00000000 I2C1_EV_IRQHandler
0800019c g     F .text	00000000 __start
0800428c g     F .text._sscanf_r	00000054 _siscanf_r
0800452a g     F .text.__retarget_lock_release_recursive	00000002 __retarget_lock_release_recursive
08000198  w    F .text	00000000 DMA1_Stream6_IRQHandler
08001fc8 g     F .text	00000040 Status_LED_All_Off
08005dc4 g     F .text.__ssputs_r	000000c0 __ssputs_r
08004524 g     F .text.__retarget_lock_try_acquire_recursive	00000004 __retarget_lock_try_acquire_recursive
08003680 g     F .text	00000012 .hidden __aeabi_dcmpgt
08000198  w    F .text	00000000 DMA1_Stream1_IRQHandler
200001e0 g     O .bss	00000004 system_mode
0800652e g     F .text.__sfputs_r	00000024 __sfputs_r
08006ce0 g     F .text.__sfp_lock_acquire	0000000c __sfp_lock_acquire
08002ad0 g     F .text	00000000 memchr
08003884  w    F .text._printf_float	00000448 _printf_float
080041b4 g     F .text._sprintf_r	0000003c _sprintf_r
080051ec g     F .text._free_r	00000098 _free_r
08000198  w    F .text	00000000 TIM3_IRQHandler
08000198  w    F .text	00000000 RCC_IRQHandler
08007544 g     F .text.__locale_mb_cur_max	0000000c __locale_mb_cur_max
0800366c g     F .text	00000012 .hidden __aeabi_dcmpge
08000204 g     F .text	0000012c RTC_Init_And_Alarm_Set
08006168 g     F .text._sungetc_r	0000007a _sungetc_r
08002df0 g     F .text	0000027a .hidden __aeabi_dsub
080023c0 g     F .text	0000001c TIM4_Check_Timeout
000001d4 g       *ABS*	00000000 __RW_SIZE__
08007b00 g     O .rodata	00000010 AHBPrescTable
0800058c g     F .text	0000002c _Invalid_ISR
08004520 g     F .text.__retarget_lock_try_acquire	00000004 __retarget_lock_try_acquire
080030f4 g     F .text	0000006a .hidden __floatundidf
08001e84 g     F .text	00000004 _lseek
080058c0 g     F .text.__lshift	000000e4 __lshift
08000330 g     F .text	000000d8 Set_Alarm_From_String
08007a90 g     F .text.signal	00000010 signal
08005e84 g     F .text.__ssprint_r	000000f4 __ssprint_r
080005b8 g     F .text	00000038 EXTI15_10_IRQHandler
08000198  w    F .text	00000000 ADC_IRQHandler
08008400 g       *ABS*	00000000 __RW_LOAD_ADDR__
08002180 g     F .text	00000044 SysTick_Run
0800569c g     F .text.__multiply	0000016c __multiply
080015dc g     F .text	00000018 LCD_String
08005bec g     F .text.__d2b	000000b0 __d2b
0800400c g     F .text._printf_r	0000001c _iprintf_r
08000198  w    F .text	00000000 DMA1_Stream7_IRQHandler
08000198  w    F .text	00000000 SPI5_IRQHandler
080078dc g     F .text._strtoul_r	00000004 _strtoul_r
08000664 g     F .text	00000010 Key_Wait_Key_Released
080043c0 g     F .text._close_r	00000020 _close_r
0800308c g     F .text	00000022 .hidden __aeabi_i2d
08000198  w    F .text	00000000 TIM5_IRQHandler
08000000 g       .text	00000000 __RO_BASE__
08000198  w    F .text	00000000 DMA2_Stream7_IRQHandler
0800451a g     F .text.__retarget_lock_close_recursive	00000002 __retarget_lock_close_recursive
08000198  w    F .text	00000000 I2C3_EV_IRQHandler
08004234 g     F .text.sscanf	00000058 sscanf
0800741c g     F .text.__swsetup_r	000000a8 __swsetup_r
08000198  w    F .text	00000000 EXTI9_5_IRQHandler
080033b4 g     F .text	000001d0 .hidden __divdf3
08006cf8 g     F .text.__sfp	000000a4 __sfp
08005d3c g     F .text.__copybits	00000046 __copybits
08000198  w    F .text	00000000 RTC_WKUP_IRQHandler
080021ec g     F .text	0000008c Delay_ms
08001dd4 g     F .text	00000058 Move_CCW
08003160 g     F .text	00000254 .hidden __muldf3
080042e0 g     F .text.__sread	00000022 __sread
08000408 g     F .text	00000094 Set_Current_Time
08007932 g     F .text._fprintf_r	0000001a _fprintf_r
080053e0 g     F .text.__malloc_lock	0000000c __malloc_lock
08006b34 g     F .text._fflush_r	00000050 _fflush_r
08007626 g     F .text._calloc_r	00000028 _calloc_r
080022d0 g     F .text	000000ac TIM2_Delay
08000198  w    F .text	00000000 SPI2_IRQHandler
0800451e g     F .text.__retarget_lock_acquire_recursive	00000002 __retarget_lock_acquire_recursive
08001040 g     F .text	00000548 LCD_Init
080074f6 g     F .text.memset	00000010 memset
08000198  w    F .text	00000000 MemManage_Handler
08000198  w    F .text	00000000 DMA1_Stream0_IRQHandler
08000b1c g     F .text	00000524 LCD_Init_To
08004516 g     F .text.__retarget_lock_init_recursive	00000002 __retarget_lock_init_recursive
0800740c g     F .text.__swbuf	00000010 __swbuf
080029cc g     F .text	00000014 Uart2_Get_Pressed
20000360 g       .bss	00000000 __ZI_LIMIT__
08000198  w    F .text	00000000 SVC_Handler
08004364 g     F .text.__sclose	00000008 __sclose
080077d4 g     F .text._strtol_r	00000004 _strtol_r
08004640 g     F .text._dtoa_r	00000bac _dtoa_r
080052e8 g     F .text._malloc_r	000000f8 _malloc_r
08007918 g     F .text.__ascii_wctomb	0000001a __ascii_wctomb
08003104 g     F .text	0000005a .hidden __aeabi_l2d
0800273c g     F .text	00000030 Uart1_Send_String
08002718 g     F .text	00000024 Uart1_Send_Byte
08007932 g     F .text._fprintf_r	0000001a _fiprintf_r
0800720a g     F .text.__submore	00000074 __submore
08007aa0 g     F .text._init_signal	0000000c _init_signal
08000640 g     F .text	00000014 Key_Get_Pressed
080025fc g     F .text	00000024 Uart2_Send_Byte
08001be8 g     F .text	00000064 Rotate_Next_Slot
080023fc g     F .text	00000050 TIM3_Out_Init
08007650 g     F .text._mbtowc_r	00000010 _mbtowc_r
08000198  w    F .text	00000000 EXTI4_IRQHandler
080020a8 g     F .text	00000050 Status_LED_Green
08000978 g     F .text	00000188 LCD_Send_To
08002b80 g     F .text	00000014 strcmp
08004234 g     F .text.sscanf	00000058 siscanf
08008400 g       .rodata	00000000 __RO_LIMIT__
08006794 g     F .text.vfprintf	00000014 vfiprintf
080020f8 g     F .text	00000014 SystemInit
08004514 g     F .text.__retarget_lock_init	00000002 __retarget_lock_init
080078e0 g     F .text.strtoul_l	00000014 strtoul_l
08003594 g     F .text	0000007a .hidden __nedf2
08004028 g     F .text.printf	00000024 iprintf
080041f0 g     F .text.sprintf	00000044 sprintf
0800380e g     F .text.__exponent	00000076 __exponent
2000035c g     O .bss	00000004 _PathLocale
080044e4 g     F .text._write_r	00000024 _write_r
0800436c g     F .text._vsprintf_r	0000002c _vsprintf_r
08007550 g     F .text.setlocale	00000010 setlocale
08002510 g     F .text	000000ec Uart2_Init
08003ccc g     F .text._printf_common	000000ea _printf_common
2000000c g     O .data	00000004 _impure_ptr
08006a34 g     F .text.__sflush_r	00000100 __sflush_r
0800050c g     F .text	00000014 Buzzer_On
080070a4 g     F .text._fwalk_sglue	0000003a _fwalk_sglue
08000b18 g     F .text	00000004 LCD_Data
08005f78 g     F .text._svfprintf_r	000001f0 _svfiprintf_r
0000018c g       *ABS*	00000000 __ZI_SIZE__
08000198  w    F .text	00000000 WWDG_IRQHandler
08007660 g     F .text.__ascii_mbtowc	00000024 __ascii_mbtowc
08005b0c g     F .text.__ulp	0000004c __ulp
08006de8 g     F .text.__fp_unlock_all	0000001c __fp_unlock_all
080021e0 g     F .text	0000000a SysTick_Stop
08000198  w    F .text	00000000 TIM2_IRQHandler
08001738 g     F .text	00000010 LED_Off
080027cc g     F .text	00000014 Uart2_Get_Char
08003710 g     F .text	00000040 .hidden __aeabi_d2uiz
200001d8 g     O .bss	00000004 pill_alarm_flag
08000198  w    F .text	00000000 OTG_FS_WKUP_IRQHandler
08000198  w    F .text	00000000 TIM1_TRG_COM_TIM11_IRQHandler
0800621c g     F .text.__ssvfscanf_r	000002e8 __ssvfiscanf_r
200001d4 g       .bss	00000000 __ZI_BASE__
080043b8 g     F .text.localeconv	00000008 localeconv
080070de g     F .text.__swhatbuf_r	00000048 __swhatbuf_r
08001c4c g     F .text	00000034 Stepper2_Step
08000198  w    F .text	00000000 EXTI1_IRQHandler
08003630 g     F .text	00000012 .hidden __aeabi_dcmpeq
08001d14 g     F .text	0000000c Motor_Get_Dir
0800428c g     F .text._sscanf_r	00000054 _sscanf_r
2000005c g     O .data	0000000c __sglue
080023dc g     F .text	00000010 TIM4_Stop
08001e64 g     F .text	0000001a _write
08000654 g     F .text	00000010 Key_Wait_Key_Pressed
08001d68 g     F .text	00000018 Stop
08002620 g     F .text	000000f8 Uart1_Init
20000215 g     O .bss	00000001 __lock___at_quick_exit_mutex
08001d08 g     F .text	0000000c Motor_Get_Percent
08001b98 g     F .text	00000050 Stepper_Step
08001588 g     F .text	0000001a LCD_Set_Cursor_To
08000198  w    F .text	00000000 USART2_IRQHandler
08004306 g     F .text.__swrite	00000038 __swrite
0800794c g     F .text.fprintf	00000024 fiprintf
0800656c g     F .text._vfprintf_r	00000228 _vfiprintf_r
0800210c g     F .text	00000070 SystemCoreClockUpdate
200001f4 g     O .bss	00000004 rx_index
080059dc g     F .text.__mdiff	00000130 __mdiff
080036c0 g     F .text	0000004e .hidden __aeabi_d2iz
08001ea4 g     F .text	00000010 _kill
20000010 g     O .data	0000004c _impure_data
08000198  w    F .text	00000000 I2C2_ER_IRQHandler
080029e0 g     F .text	00000050 Ultrasonic_Init
08006cec g     F .text.__sfp_lock_release	0000000c __sfp_lock_release
0800049c g     F .text	00000070 Buzzer_Init
080041f0 g     F .text.sprintf	00000044 siprintf
08007198 g     F .text.__sccl	00000072 __sccl
08000198  w    F .text	00000000 DMA2_Stream1_IRQHandler
080082f8 g     O .rodata	00000101 _ctype_
08001e80 g     F .text	00000004 _read
0800451c g     F .text.__retarget_lock_acquire	00000002 __retarget_lock_acquire
08003694 g     F .text	0000002c .hidden __unorddf2
08004528 g     F .text.__retarget_lock_release	00000002 __retarget_lock_release
08000198  w    F .text	00000000 FLASH_IRQHandler
08007ae4 g     F .text._exit	00000002 _exit
080024a4 g     F .text	00000068 TIM2_Init
08000198  w    F .text	00000000 DMA2_Stream4_IRQHandler
08000198  w    F .text	00000000 BusFault_Handler
08002860 g     F .text	0000016c USART1_IRQHandler
20000211 g     O .bss	00000001 __lock___dd_hash_mutex
08007126 g     F .text.__smakebuf_r	00000072 __smakebuf_r
20000212 g     O .bss	00000001 __lock___tz_mutex
080021d0 g     F .text	00000008 SysTick_Get_Time
08002b70 g     F .text	00000010 strlen
08000198  w    F .text	00000000 OTG_FS_IRQHandler
08003db8 g     F .text._printf_i	00000254 _printf_i
08000198  w    F .text	00000000 SPI3_IRQHandler
0800798e g     F .text._init_signal_r	00000028 _init_signal_r
08003620 g     F .text	00000010 .hidden __aeabi_cdcmpeq
08003584 g     F .text	0000008a .hidden __gedf2
08000198  w    F .text	00000000 DMA1_Stream4_IRQHandler
20000218 g     O .bss	00000004 __malloc_sbrk_start
0800237c g     F .text	00000044 TIM4_Repeat
0800761c g     F .text.__assert	0000000a __assert
08001728 g     F .text	00000010 LED_On
08000198  w    F .text	00000000 I2C1_ER_IRQHandler
0800244c g     F .text	00000048 TIM3_Out_Freq_Generation
08006552 g     F .text.__sprint_r	0000001a __sprint_r
080030b0 g     F .text	00000042 .hidden __aeabi_f2d
08001a58 g     F .text	000000f4 Motor_Init
2000021c g     O .bss	00000004 __malloc_free_list
08007908 g     F .text._wctomb_r	00000010 _wctomb_r
08002df0 g     F .text	0000027a .hidden __subdf3
0800656c g     F .text._vfprintf_r	00000228 _vfprintf_r
080015f4 g     F .text	00000100 LCD2_Show_State
08005614 g     F .text.__lo0bits	0000005c __lo0bits
0800727e g     F .text._ungetc_r	00000100 _ungetc_r
08007aac g     F .text.__sigtramp	00000010 __sigtramp
08000b00 g     F .text	00000006 LCD_Cmd_To
08000198  w    F .text	00000000 DMA2_Stream6_IRQHandler
08000198  w    F .text	00000000 Invalid_ISR
200001d4 g     O .bss	00000004 buzzer_state
20000068 g     O .data	0000016c __global_locale
080021c4 g     F .text	0000000c SysTick_Check_Timeout
08006794 g     F .text.vfprintf	00000014 vfprintf
08000198  w    F .text	00000000 DMA1_Stream3_IRQHandler
20000217 g     O .bss	00000001 __lock___sfp_recursive_mutex
08007a80 g     F .text.raise	00000010 raise
08001e88 g     F .text	00000006 _close
08005294 g     F .text.free	00000010 free
080054b8 g     F .text.__multadd	0000008c __multadd
08005474 g     F .text._Bfree	00000044 _Bfree



Disassembly of section .text:

08000000 <__RO_BASE__>:
 8000000:	20020000 			@ <UNDEFINED> instruction: 20020000
 8000004:	0800019d 			@ <UNDEFINED> instruction: 0800019d
 8000008:	08000199 			@ <UNDEFINED> instruction: 08000199
 800000c:	08000199 			@ <UNDEFINED> instruction: 08000199
 8000010:	08000199 			@ <UNDEFINED> instruction: 08000199
 8000014:	08000199 			@ <UNDEFINED> instruction: 08000199
 8000018:	08000199 			@ <UNDEFINED> instruction: 08000199
 800001c:	08000199 			@ <UNDEFINED> instruction: 08000199
 8000020:	08000199 			@ <UNDEFINED> instruction: 08000199
 8000024:	08000199 			@ <UNDEFINED> instruction: 08000199
 8000028:	08000199 			@ <UNDEFINED> instruction: 08000199
 800002c:	08000199 			@ <UNDEFINED> instruction: 08000199
 8000030:	08000199 			@ <UNDEFINED> instruction: 08000199
 8000034:	08000199 			@ <UNDEFINED> instruction: 08000199
 8000038:	08000199 			@ <UNDEFINED> instruction: 08000199
 800003c:	08000199 			@ <UNDEFINED> instruction: 08000199
 8000040:	08000199 			@ <UNDEFINED> instruction: 08000199
 8000044:	08000199 			@ <UNDEFINED> instruction: 08000199
 8000048:	08000199 			@ <UNDEFINED> instruction: 08000199
 800004c:	08000199 			@ <UNDEFINED> instruction: 08000199
 8000050:	08000199 			@ <UNDEFINED> instruction: 08000199
 8000054:	08000199 			@ <UNDEFINED> instruction: 08000199
 8000058:	08000199 			@ <UNDEFINED> instruction: 08000199
 800005c:	08000199 			@ <UNDEFINED> instruction: 08000199
 8000060:	08000199 			@ <UNDEFINED> instruction: 08000199
 8000064:	08000199 			@ <UNDEFINED> instruction: 08000199
 8000068:	08000199 			@ <UNDEFINED> instruction: 08000199
 800006c:	08000199 			@ <UNDEFINED> instruction: 08000199
 8000070:	08000199 			@ <UNDEFINED> instruction: 08000199
 8000074:	08000199 			@ <UNDEFINED> instruction: 08000199
 8000078:	08000199 			@ <UNDEFINED> instruction: 08000199
 800007c:	08000199 			@ <UNDEFINED> instruction: 08000199
 8000080:	08000199 			@ <UNDEFINED> instruction: 08000199
 8000084:	08000199 			@ <UNDEFINED> instruction: 08000199
 8000088:	08000199 			@ <UNDEFINED> instruction: 08000199
 800008c:	08000199 			@ <UNDEFINED> instruction: 08000199
 8000090:	08000199 			@ <UNDEFINED> instruction: 08000199
 8000094:	08000199 			@ <UNDEFINED> instruction: 08000199
 8000098:	08000199 			@ <UNDEFINED> instruction: 08000199
 800009c:	08000199 			@ <UNDEFINED> instruction: 08000199
 80000a0:	08000199 			@ <UNDEFINED> instruction: 08000199
 80000a4:	08000199 			@ <UNDEFINED> instruction: 08000199
 80000a8:	08000199 			@ <UNDEFINED> instruction: 08000199
 80000ac:	08000199 			@ <UNDEFINED> instruction: 08000199
 80000b0:	08000199 			@ <UNDEFINED> instruction: 08000199
 80000b4:	08000199 			@ <UNDEFINED> instruction: 08000199
 80000b8:	08000199 			@ <UNDEFINED> instruction: 08000199
 80000bc:	08000199 			@ <UNDEFINED> instruction: 08000199
 80000c0:	08000199 			@ <UNDEFINED> instruction: 08000199
 80000c4:	08000199 			@ <UNDEFINED> instruction: 08000199
 80000c8:	08000199 			@ <UNDEFINED> instruction: 08000199
 80000cc:	08000199 			@ <UNDEFINED> instruction: 08000199
 80000d0:	08000199 			@ <UNDEFINED> instruction: 08000199
 80000d4:	08002861 			@ <UNDEFINED> instruction: 08002861
 80000d8:	08000199 			@ <UNDEFINED> instruction: 08000199
 80000dc:	08000199 			@ <UNDEFINED> instruction: 08000199
 80000e0:	080005b9 			@ <UNDEFINED> instruction: 080005b9
 80000e4:	080005f1 			@ <UNDEFINED> instruction: 080005f1
 80000e8:	08000199 			@ <UNDEFINED> instruction: 08000199
 80000ec:	08000199 			@ <UNDEFINED> instruction: 08000199
 80000f0:	08000199 			@ <UNDEFINED> instruction: 08000199
 80000f4:	08000199 			@ <UNDEFINED> instruction: 08000199
 80000f8:	08000199 			@ <UNDEFINED> instruction: 08000199
 80000fc:	08000199 			@ <UNDEFINED> instruction: 08000199
 8000100:	08000199 			@ <UNDEFINED> instruction: 08000199
 8000104:	08000199 			@ <UNDEFINED> instruction: 08000199
 8000108:	08000199 			@ <UNDEFINED> instruction: 08000199
 800010c:	08000199 			@ <UNDEFINED> instruction: 08000199
 8000110:	08000199 			@ <UNDEFINED> instruction: 08000199
 8000114:	08000199 			@ <UNDEFINED> instruction: 08000199
 8000118:	08000199 			@ <UNDEFINED> instruction: 08000199
 800011c:	08000199 			@ <UNDEFINED> instruction: 08000199
 8000120:	08000199 			@ <UNDEFINED> instruction: 08000199
 8000124:	08000199 			@ <UNDEFINED> instruction: 08000199
 8000128:	08000199 			@ <UNDEFINED> instruction: 08000199
 800012c:	08000199 			@ <UNDEFINED> instruction: 08000199
 8000130:	08000199 			@ <UNDEFINED> instruction: 08000199
 8000134:	08000199 			@ <UNDEFINED> instruction: 08000199
 8000138:	08000199 			@ <UNDEFINED> instruction: 08000199
 800013c:	08000199 			@ <UNDEFINED> instruction: 08000199
 8000140:	08000199 			@ <UNDEFINED> instruction: 08000199
 8000144:	08000199 			@ <UNDEFINED> instruction: 08000199
 8000148:	08000199 			@ <UNDEFINED> instruction: 08000199
 800014c:	08000199 			@ <UNDEFINED> instruction: 08000199
 8000150:	08000199 			@ <UNDEFINED> instruction: 08000199
 8000154:	08000199 			@ <UNDEFINED> instruction: 08000199
 8000158:	08000199 			@ <UNDEFINED> instruction: 08000199
 800015c:	08000199 			@ <UNDEFINED> instruction: 08000199
 8000160:	08000199 			@ <UNDEFINED> instruction: 08000199
 8000164:	08000199 			@ <UNDEFINED> instruction: 08000199
 8000168:	08000199 			@ <UNDEFINED> instruction: 08000199
 800016c:	08000199 			@ <UNDEFINED> instruction: 08000199
 8000170:	08000199 			@ <UNDEFINED> instruction: 08000199
 8000174:	08000199 			@ <UNDEFINED> instruction: 08000199
 8000178:	08000199 			@ <UNDEFINED> instruction: 08000199
 800017c:	08000199 			@ <UNDEFINED> instruction: 08000199
 8000180:	08000199 			@ <UNDEFINED> instruction: 08000199
 8000184:	08000199 			@ <UNDEFINED> instruction: 08000199
 8000188:	08000199 			@ <UNDEFINED> instruction: 08000199
 800018c:	08000199 			@ <UNDEFINED> instruction: 08000199
 8000190:	08000199 			@ <UNDEFINED> instruction: 08000199
 8000194:	08000199 			@ <UNDEFINED> instruction: 08000199

08000198 <ADC_IRQHandler>:
 8000198:	f000 b9f8 	b.w	800058c <_Invalid_ISR>

0800019c <__start>:
 800019c:	4813      	ldr	r0, [pc, #76]	@ (80001ec <__start+0x50>)
 800019e:	6801      	ldr	r1, [r0, #0]
 80001a0:	f041 0105 	orr.w	r1, r1, #5
 80001a4:	6001      	str	r1, [r0, #0]
 80001a6:	4812      	ldr	r0, [pc, #72]	@ (80001f0 <__start+0x54>)
 80001a8:	f44f 31b0 	mov.w	r1, #90112	@ 0x16000
 80001ac:	6001      	str	r1, [r0, #0]
 80001ae:	f44f 41c0 	mov.w	r1, #24576	@ 0x6000
 80001b2:	6001      	str	r1, [r0, #0]
 80001b4:	f44f 31b0 	mov.w	r1, #90112	@ 0x16000
 80001b8:	6001      	str	r1, [r0, #0]
 80001ba:	6801      	ldr	r1, [r0, #0]
 80001bc:	480d      	ldr	r0, [pc, #52]	@ (80001f4 <__start+0x58>)
 80001be:	490e      	ldr	r1, [pc, #56]	@ (80001f8 <__start+0x5c>)
 80001c0:	4b0e      	ldr	r3, [pc, #56]	@ (80001fc <__start+0x60>)
 80001c2:	4288      	cmp	r0, r1
 80001c4:	d006      	beq.n	80001d4 <__start+0x38>
 80001c6:	4299      	cmp	r1, r3
 80001c8:	bf3c      	itt	cc
 80001ca:	f850 2b04 	ldrcc.w	r2, [r0], #4
 80001ce:	f841 2b04 	strcc.w	r2, [r1], #4
 80001d2:	d3f8      	bcc.n	80001c6 <__start+0x2a>
 80001d4:	490a      	ldr	r1, [pc, #40]	@ (8000200 <__start+0x64>)
 80001d6:	f04f 0200 	mov.w	r2, #0
 80001da:	428b      	cmp	r3, r1
 80001dc:	bf3c      	itt	cc
 80001de:	f843 2b04 	strcc.w	r2, [r3], #4
 80001e2:	e7fa      	bcc.n	80001da <__start+0x3e>
 80001e4:	f001 fab0 	bl	8001748 <Main>
 80001e8:	e7fe      	b.n	80001e8 <__start+0x4c>
 80001ea:	38300000 			@ <UNDEFINED> instruction: 38300000
 80001ee:	001c4002 			@ <UNDEFINED> instruction: 001c4002
 80001f2:	84004002 			@ <UNDEFINED> instruction: 84004002
 80001f6:	00000800 			@ <UNDEFINED> instruction: 00000800
 80001fa:	01d42000 			@ <UNDEFINED> instruction: 01d42000
 80001fe:	03602000 			@ <UNDEFINED> instruction: 03602000
 8000202:	 			@ <UNDEFINED> instruction: b5702000

08000204 <RTC_Init_And_Alarm_Set>:
 8000204:	b570      	push	{r4, r5, r6, lr}
 8000206:	4b43      	ldr	r3, [pc, #268]	@ (8000314 <RTC_Init_And_Alarm_Set+0x110>)
 8000208:	6c1c      	ldr	r4, [r3, #64]	@ 0x40
 800020a:	f044 5480 	orr.w	r4, r4, #268435456	@ 0x10000000
 800020e:	641c      	str	r4, [r3, #64]	@ 0x40
 8000210:	4c41      	ldr	r4, [pc, #260]	@ (8000318 <RTC_Init_And_Alarm_Set+0x114>)
 8000212:	4696      	mov	lr, r2
 8000214:	6822      	ldr	r2, [r4, #0]
 8000216:	f442 7280 	orr.w	r2, r2, #256	@ 0x100
 800021a:	6022      	str	r2, [r4, #0]
 800021c:	6f1a      	ldr	r2, [r3, #112]	@ 0x70
 800021e:	f442 3280 	orr.w	r2, r2, #65536	@ 0x10000
 8000222:	671a      	str	r2, [r3, #112]	@ 0x70
 8000224:	6f1a      	ldr	r2, [r3, #112]	@ 0x70
 8000226:	f422 3280 	bic.w	r2, r2, #65536	@ 0x10000
 800022a:	671a      	str	r2, [r3, #112]	@ 0x70
 800022c:	6f1a      	ldr	r2, [r3, #112]	@ 0x70
 800022e:	f042 0201 	orr.w	r2, r2, #1
 8000232:	671a      	str	r2, [r3, #112]	@ 0x70
 8000234:	6f1a      	ldr	r2, [r3, #112]	@ 0x70
 8000236:	0794      	lsls	r4, r2, #30
 8000238:	d5fc      	bpl.n	8000234 <RTC_Init_And_Alarm_Set+0x30>
 800023a:	6f1a      	ldr	r2, [r3, #112]	@ 0x70
 800023c:	f442 7280 	orr.w	r2, r2, #256	@ 0x100
 8000240:	671a      	str	r2, [r3, #112]	@ 0x70
 8000242:	6f1a      	ldr	r2, [r3, #112]	@ 0x70
 8000244:	f442 4200 	orr.w	r2, r2, #32768	@ 0x8000
 8000248:	671a      	str	r2, [r3, #112]	@ 0x70
 800024a:	4b34      	ldr	r3, [pc, #208]	@ (800031c <RTC_Init_And_Alarm_Set+0x118>)
 800024c:	22ca      	movs	r2, #202	@ 0xca
 800024e:	625a      	str	r2, [r3, #36]	@ 0x24
 8000250:	2253      	movs	r2, #83	@ 0x53
 8000252:	625a      	str	r2, [r3, #36]	@ 0x24
 8000254:	68da      	ldr	r2, [r3, #12]
 8000256:	f042 0280 	orr.w	r2, r2, #128	@ 0x80
 800025a:	60da      	str	r2, [r3, #12]
 800025c:	68da      	ldr	r2, [r3, #12]
 800025e:	0652      	lsls	r2, r2, #25
 8000260:	d5fc      	bpl.n	800025c <RTC_Init_And_Alarm_Set+0x58>
 8000262:	4a2f      	ldr	r2, [pc, #188]	@ (8000320 <RTC_Init_And_Alarm_Set+0x11c>)
 8000264:	611a      	str	r2, [r3, #16]
 8000266:	2200      	movs	r2, #0
 8000268:	601a      	str	r2, [r3, #0]
 800026a:	68da      	ldr	r2, [r3, #12]
 800026c:	f8df c0ac 	ldr.w	ip, [pc, #172]	@ 800031c <RTC_Init_And_Alarm_Set+0x118>
 8000270:	f022 0280 	bic.w	r2, r2, #128	@ 0x80
 8000274:	60da      	str	r2, [r3, #12]
 8000276:	689a      	ldr	r2, [r3, #8]
 8000278:	f422 7280 	bic.w	r2, r2, #256	@ 0x100
 800027c:	609a      	str	r2, [r3, #8]
 800027e:	f8dc 300c 	ldr.w	r3, [ip, #12]
 8000282:	07db      	lsls	r3, r3, #31
 8000284:	d5fb      	bpl.n	800027e <RTC_Init_And_Alarm_Set+0x7a>
 8000286:	4b27      	ldr	r3, [pc, #156]	@ (8000324 <RTC_Init_And_Alarm_Set+0x120>)
 8000288:	17c5      	asrs	r5, r0, #31
 800028a:	fb83 4200 	smull	r4, r2, r3, r0
 800028e:	ebc5 05a2 	rsb	r5, r5, r2, asr #2
 8000292:	fb83 260e 	smull	r2, r6, r3, lr
 8000296:	fb83 3401 	smull	r3, r4, r3, r1
 800029a:	ea4f 72ee 	mov.w	r2, lr, asr #31
 800029e:	eb05 0385 	add.w	r3, r5, r5, lsl #2
 80002a2:	ebc2 02a6 	rsb	r2, r2, r6, asr #2
 80002a6:	eba0 0043 	sub.w	r0, r0, r3, lsl #1
 80002aa:	17cb      	asrs	r3, r1, #31
 80002ac:	ebc3 03a4 	rsb	r3, r3, r4, asr #2
 80002b0:	eb02 0482 	add.w	r4, r2, r2, lsl #2
 80002b4:	ea40 1005 	orr.w	r0, r0, r5, lsl #4
 80002b8:	ebae 0e44 	sub.w	lr, lr, r4, lsl #1
 80002bc:	ea4e 4e00 	orr.w	lr, lr, r0, lsl #16
 80002c0:	ea4e 1e02 	orr.w	lr, lr, r2, lsl #4
 80002c4:	eb03 0283 	add.w	r2, r3, r3, lsl #2
 80002c8:	eba1 0142 	sub.w	r1, r1, r2, lsl #1
 80002cc:	ea41 1103 	orr.w	r1, r1, r3, lsl #4
 80002d0:	ea4e 2e01 	orr.w	lr, lr, r1, lsl #8
 80002d4:	f04e 4300 	orr.w	r3, lr, #2147483648	@ 0x80000000
 80002d8:	f8cc 301c 	str.w	r3, [ip, #28]
 80002dc:	f8dc 2008 	ldr.w	r2, [ip, #8]
 80002e0:	4b11      	ldr	r3, [pc, #68]	@ (8000328 <RTC_Init_And_Alarm_Set+0x124>)
 80002e2:	4912      	ldr	r1, [pc, #72]	@ (800032c <RTC_Init_And_Alarm_Set+0x128>)
 80002e4:	f442 7280 	orr.w	r2, r2, #256	@ 0x100
 80002e8:	f8cc 2008 	str.w	r2, [ip, #8]
 80002ec:	f8dc 2008 	ldr.w	r2, [ip, #8]
 80002f0:	f442 5280 	orr.w	r2, r2, #4096	@ 0x1000
 80002f4:	f8cc 2008 	str.w	r2, [ip, #8]
 80002f8:	681a      	ldr	r2, [r3, #0]
 80002fa:	f442 3200 	orr.w	r2, r2, #131072	@ 0x20000
 80002fe:	601a      	str	r2, [r3, #0]
 8000300:	689a      	ldr	r2, [r3, #8]
 8000302:	f442 3200 	orr.w	r2, r2, #131072	@ 0x20000
 8000306:	609a      	str	r2, [r3, #8]
 8000308:	684b      	ldr	r3, [r1, #4]
 800030a:	f443 7300 	orr.w	r3, r3, #512	@ 0x200
 800030e:	604b      	str	r3, [r1, #4]
 8000310:	bd70      	pop	{r4, r5, r6, pc}
 8000312:	bf00      	nop
 8000314:	40023800 			@ <UNDEFINED> instruction: 40023800
 8000318:	40007000 			@ <UNDEFINED> instruction: 40007000
 800031c:	40002800 			@ <UNDEFINED> instruction: 40002800
 8000320:	007f00ff 	ldrshteq	r0, [pc], #-15
 8000324:	66666667 			@ <UNDEFINED> instruction: 66666667
 8000328:	40013c00 			@ <UNDEFINED> instruction: 40013c00
 800032c:	e000e100 			@ <UNDEFINED> instruction: e000e100

08000330 <Set_Alarm_From_String>:
 8000330:	b530      	push	{r4, r5, lr}
 8000332:	b087      	sub	sp, #28
 8000334:	ab05      	add	r3, sp, #20
 8000336:	9300      	str	r3, [sp, #0]
 8000338:	492d      	ldr	r1, [pc, #180]	@ (80003f0 <Set_Alarm_From_String+0xc0>)
 800033a:	ab04      	add	r3, sp, #16
 800033c:	aa03      	add	r2, sp, #12
 800033e:	f003 ff79 	bl	8004234 <siscanf>
 8000342:	2803      	cmp	r0, #3
 8000344:	d004      	beq.n	8000350 <Set_Alarm_From_String+0x20>
 8000346:	482b      	ldr	r0, [pc, #172]	@ (80003f4 <Set_Alarm_From_String+0xc4>)
 8000348:	f003 fe6e 	bl	8004028 <iprintf>
 800034c:	b007      	add	sp, #28
 800034e:	bd30      	pop	{r4, r5, pc}
 8000350:	e9dd 2304 	ldrd	r2, r3, [sp, #16]
 8000354:	9903      	ldr	r1, [sp, #12]
 8000356:	4828      	ldr	r0, [pc, #160]	@ (80003f8 <Set_Alarm_From_String+0xc8>)
 8000358:	f003 fe66 	bl	8004028 <iprintf>
 800035c:	4b27      	ldr	r3, [pc, #156]	@ (80003fc <Set_Alarm_From_String+0xcc>)
 800035e:	2253      	movs	r2, #83	@ 0x53
 8000360:	21ca      	movs	r1, #202	@ 0xca
 8000362:	6259      	str	r1, [r3, #36]	@ 0x24
 8000364:	625a      	str	r2, [r3, #36]	@ 0x24
 8000366:	689a      	ldr	r2, [r3, #8]
 8000368:	f422 7280 	bic.w	r2, r2, #256	@ 0x100
 800036c:	609a      	str	r2, [r3, #8]
 800036e:	68da      	ldr	r2, [r3, #12]
 8000370:	07d2      	lsls	r2, r2, #31
 8000372:	d5fc      	bpl.n	800036e <Set_Alarm_From_String+0x3e>
 8000374:	9803      	ldr	r0, [sp, #12]
 8000376:	f8df c08c 	ldr.w	ip, [pc, #140]	@ 8000404 <Set_Alarm_From_String+0xd4>
 800037a:	9904      	ldr	r1, [sp, #16]
 800037c:	9d05      	ldr	r5, [sp, #20]
 800037e:	9c05      	ldr	r4, [sp, #20]
 8000380:	fb8c e200 	smull	lr, r2, ip, r0
 8000384:	ea4f 7ee0 	mov.w	lr, r0, asr #31
 8000388:	ebce 02a2 	rsb	r2, lr, r2, asr #2
 800038c:	fb8c e404 	smull	lr, r4, ip, r4
 8000390:	fb8c ec01 	smull	lr, ip, ip, r1
 8000394:	ea4f 7ee5 	mov.w	lr, r5, asr #31
 8000398:	ebce 0ea4 	rsb	lr, lr, r4, asr #2
 800039c:	17cc      	asrs	r4, r1, #31
 800039e:	ebc4 0cac 	rsb	ip, r4, ip, asr #2
 80003a2:	eb02 0482 	add.w	r4, r2, r2, lsl #2
 80003a6:	eba0 0044 	sub.w	r0, r0, r4, lsl #1
 80003aa:	ea40 1002 	orr.w	r0, r0, r2, lsl #4
 80003ae:	eb0e 028e 	add.w	r2, lr, lr, lsl #2
 80003b2:	eba5 0242 	sub.w	r2, r5, r2, lsl #1
 80003b6:	ea42 120e 	orr.w	r2, r2, lr, lsl #4
 80003ba:	ea42 4200 	orr.w	r2, r2, r0, lsl #16
 80003be:	eb0c 008c 	add.w	r0, ip, ip, lsl #2
 80003c2:	eba1 0140 	sub.w	r1, r1, r0, lsl #1
 80003c6:	ea41 110c 	orr.w	r1, r1, ip, lsl #4
 80003ca:	ea42 2201 	orr.w	r2, r2, r1, lsl #8
 80003ce:	61da      	str	r2, [r3, #28]
 80003d0:	69da      	ldr	r2, [r3, #28]
 80003d2:	480b      	ldr	r0, [pc, #44]	@ (8000400 <Set_Alarm_From_String+0xd0>)
 80003d4:	f042 4200 	orr.w	r2, r2, #2147483648	@ 0x80000000
 80003d8:	61da      	str	r2, [r3, #28]
 80003da:	689a      	ldr	r2, [r3, #8]
 80003dc:	21ff      	movs	r1, #255	@ 0xff
 80003de:	f442 7280 	orr.w	r2, r2, #256	@ 0x100
 80003e2:	609a      	str	r2, [r3, #8]
 80003e4:	6259      	str	r1, [r3, #36]	@ 0x24
 80003e6:	f003 fe1f 	bl	8004028 <iprintf>
 80003ea:	b007      	add	sp, #28
 80003ec:	bd30      	pop	{r4, r5, pc}
 80003ee:	bf00      	nop
 80003f0:	08007b24 			@ <UNDEFINED> instruction: 08007b24
 80003f4:	08007b84 			@ <UNDEFINED> instruction: 08007b84
 80003f8:	08007b30 			@ <UNDEFINED> instruction: 08007b30
 80003fc:	40002800 			@ <UNDEFINED> instruction: 40002800
 8000400:	08007b60 			@ <UNDEFINED> instruction: 08007b60
 8000404:	66666667 			@ <UNDEFINED> instruction: 66666667

08000408 <Set_Current_Time>:
 8000408:	b530      	push	{r4, r5, lr}
 800040a:	f8df c08c 	ldr.w	ip, [pc, #140]	@ 8000498 <Set_Current_Time+0x90>
 800040e:	23ca      	movs	r3, #202	@ 0xca
 8000410:	f8cc 3024 	str.w	r3, [ip, #36]	@ 0x24
 8000414:	2353      	movs	r3, #83	@ 0x53
 8000416:	f8cc 3024 	str.w	r3, [ip, #36]	@ 0x24
 800041a:	f8dc 300c 	ldr.w	r3, [ip, #12]
 800041e:	f043 0380 	orr.w	r3, r3, #128	@ 0x80
 8000422:	f8cc 300c 	str.w	r3, [ip, #12]
 8000426:	f8dc 300c 	ldr.w	r3, [ip, #12]
 800042a:	065b      	lsls	r3, r3, #25
 800042c:	d5fb      	bpl.n	8000426 <Set_Current_Time+0x1e>
 800042e:	4b19      	ldr	r3, [pc, #100]	@ (8000494 <Set_Current_Time+0x8c>)
 8000430:	17cc      	asrs	r4, r1, #31
 8000432:	fb83 e501 	smull	lr, r5, r3, r1
 8000436:	ebc4 04a5 	rsb	r4, r4, r5, asr #2
 800043a:	fb83 e502 	smull	lr, r5, r3, r2
 800043e:	fb83 e300 	smull	lr, r3, r3, r0
 8000442:	ea4f 7ee2 	mov.w	lr, r2, asr #31
 8000446:	ebce 0ea5 	rsb	lr, lr, r5, asr #2
 800044a:	17c5      	asrs	r5, r0, #31
 800044c:	ebc5 03a3 	rsb	r3, r5, r3, asr #2
 8000450:	eb04 0584 	add.w	r5, r4, r4, lsl #2
 8000454:	eba1 0145 	sub.w	r1, r1, r5, lsl #1
 8000458:	ea41 1104 	orr.w	r1, r1, r4, lsl #4
 800045c:	eb0e 048e 	add.w	r4, lr, lr, lsl #2
 8000460:	eba2 0244 	sub.w	r2, r2, r4, lsl #1
 8000464:	ea42 120e 	orr.w	r2, r2, lr, lsl #4
 8000468:	ea42 2201 	orr.w	r2, r2, r1, lsl #8
 800046c:	eb03 0183 	add.w	r1, r3, r3, lsl #2
 8000470:	eba0 0041 	sub.w	r0, r0, r1, lsl #1
 8000474:	ea40 1003 	orr.w	r0, r0, r3, lsl #4
 8000478:	ea42 4200 	orr.w	r2, r2, r0, lsl #16
 800047c:	f8cc 2000 	str.w	r2, [ip]
 8000480:	f8dc 300c 	ldr.w	r3, [ip, #12]
 8000484:	22ff      	movs	r2, #255	@ 0xff
 8000486:	f023 0380 	bic.w	r3, r3, #128	@ 0x80
 800048a:	f8cc 300c 	str.w	r3, [ip, #12]
 800048e:	f8cc 2024 	str.w	r2, [ip, #36]	@ 0x24
 8000492:	bd30      	pop	{r4, r5, pc}
 8000494:	66666667 			@ <UNDEFINED> instruction: 66666667
 8000498:	40002800 			@ <UNDEFINED> instruction: 40002800

0800049c <Buzzer_Init>:
 800049c:	4a18      	ldr	r2, [pc, #96]	@ (8000500 <Buzzer_Init+0x64>)
 800049e:	4919      	ldr	r1, [pc, #100]	@ (8000504 <Buzzer_Init+0x68>)
 80004a0:	6b10      	ldr	r0, [r2, #48]	@ 0x30
 80004a2:	4b19      	ldr	r3, [pc, #100]	@ (8000508 <Buzzer_Init+0x6c>)
 80004a4:	f040 0002 	orr.w	r0, r0, #2
 80004a8:	6310      	str	r0, [r2, #48]	@ 0x30
 80004aa:	6c10      	ldr	r0, [r2, #64]	@ 0x40
 80004ac:	f040 0004 	orr.w	r0, r0, #4
 80004b0:	6410      	str	r0, [r2, #64]	@ 0x40
 80004b2:	680a      	ldr	r2, [r1, #0]
 80004b4:	f422 5240 	bic.w	r2, r2, #12288	@ 0x3000
 80004b8:	f442 5200 	orr.w	r2, r2, #8192	@ 0x2000
 80004bc:	600a      	str	r2, [r1, #0]
 80004be:	6a0a      	ldr	r2, [r1, #32]
 80004c0:	f022 6270 	bic.w	r2, r2, #251658240	@ 0xf000000
 80004c4:	f042 7200 	orr.w	r2, r2, #33554432	@ 0x2000000
 80004c8:	620a      	str	r2, [r1, #32]
 80004ca:	f04f 0c53 	mov.w	ip, #83	@ 0x53
 80004ce:	2200      	movs	r2, #0
 80004d0:	f240 31e7 	movw	r1, #999	@ 0x3e7
 80004d4:	f8c3 c028 	str.w	ip, [r3, #40]	@ 0x28
 80004d8:	62d9      	str	r1, [r3, #44]	@ 0x2c
 80004da:	635a      	str	r2, [r3, #52]	@ 0x34
 80004dc:	699a      	ldr	r2, [r3, #24]
 80004de:	f022 02ff 	bic.w	r2, r2, #255	@ 0xff
 80004e2:	619a      	str	r2, [r3, #24]
 80004e4:	699a      	ldr	r2, [r3, #24]
 80004e6:	f042 0260 	orr.w	r2, r2, #96	@ 0x60
 80004ea:	619a      	str	r2, [r3, #24]
 80004ec:	6a1a      	ldr	r2, [r3, #32]
 80004ee:	f042 0201 	orr.w	r2, r2, #1
 80004f2:	621a      	str	r2, [r3, #32]
 80004f4:	681a      	ldr	r2, [r3, #0]
 80004f6:	f042 0201 	orr.w	r2, r2, #1
 80004fa:	601a      	str	r2, [r3, #0]
 80004fc:	4770      	bx	lr
 80004fe:	bf00      	nop
 8000500:	40023800 			@ <UNDEFINED> instruction: 40023800
 8000504:	40020400 			@ <UNDEFINED> instruction: 40020400
 8000508:	40000800 			@ <UNDEFINED> instruction: 40000800

0800050c <Buzzer_On>:
 800050c:	4b03      	ldr	r3, [pc, #12]	@ (800051c <Buzzer_On+0x10>)
 800050e:	f240 11f3 	movw	r1, #499	@ 0x1f3
 8000512:	22fa      	movs	r2, #250	@ 0xfa
 8000514:	62d9      	str	r1, [r3, #44]	@ 0x2c
 8000516:	635a      	str	r2, [r3, #52]	@ 0x34
 8000518:	4770      	bx	lr
 800051a:	bf00      	nop
 800051c:	40000800 			@ <UNDEFINED> instruction: 40000800

08000520 <Buzzer_Off>:
 8000520:	4b01      	ldr	r3, [pc, #4]	@ (8000528 <Buzzer_Off+0x8>)
 8000522:	2200      	movs	r2, #0
 8000524:	635a      	str	r2, [r3, #52]	@ 0x34
 8000526:	4770      	bx	lr
 8000528:	40000800 			@ <UNDEFINED> instruction: 40000800

0800052c <Clock_Init>:
 800052c:	4a14      	ldr	r2, [pc, #80]	@ (8000580 <Clock_Init+0x54>)
 800052e:	6813      	ldr	r3, [r2, #0]
 8000530:	f043 0301 	orr.w	r3, r3, #1
 8000534:	6013      	str	r3, [r2, #0]
 8000536:	6813      	ldr	r3, [r2, #0]
 8000538:	0799      	lsls	r1, r3, #30
 800053a:	d5fc      	bpl.n	8000536 <Clock_Init+0xa>
 800053c:	4b11      	ldr	r3, [pc, #68]	@ (8000584 <Clock_Init+0x58>)
 800053e:	4912      	ldr	r1, [pc, #72]	@ (8000588 <Clock_Init+0x5c>)
 8000540:	f44f 5cc0 	mov.w	ip, #6144	@ 0x1800
 8000544:	f240 7003 	movw	r0, #1795	@ 0x703
 8000548:	f8c3 c000 	str.w	ip, [r3]
 800054c:	6018      	str	r0, [r3, #0]
 800054e:	6051      	str	r1, [r2, #4]
 8000550:	6813      	ldr	r3, [r2, #0]
 8000552:	490b      	ldr	r1, [pc, #44]	@ (8000580 <Clock_Init+0x54>)
 8000554:	f043 7380 	orr.w	r3, r3, #16777216	@ 0x1000000
 8000558:	6013      	str	r3, [r2, #0]
 800055a:	680b      	ldr	r3, [r1, #0]
 800055c:	019b      	lsls	r3, r3, #6
 800055e:	d5fc      	bpl.n	800055a <Clock_Init+0x2e>
 8000560:	f44f 5380 	mov.w	r3, #4096	@ 0x1000
 8000564:	608b      	str	r3, [r1, #8]
 8000566:	688b      	ldr	r3, [r1, #8]
 8000568:	4a05      	ldr	r2, [pc, #20]	@ (8000580 <Clock_Init+0x54>)
 800056a:	f023 0303 	bic.w	r3, r3, #3
 800056e:	f043 0302 	orr.w	r3, r3, #2
 8000572:	608b      	str	r3, [r1, #8]
 8000574:	6893      	ldr	r3, [r2, #8]
 8000576:	f003 030c 	and.w	r3, r3, #12
 800057a:	2b08      	cmp	r3, #8
 800057c:	d1fa      	bne.n	8000574 <Clock_Init+0x48>
 800057e:	4770      	bx	lr
 8000580:	40023800 			@ <UNDEFINED> instruction: 40023800
 8000584:	40023c00 			@ <UNDEFINED> instruction: 40023c00
 8000588:	08013008 			@ <UNDEFINED> instruction: 08013008

0800058c <_Invalid_ISR>:
 800058c:	b510      	push	{r4, lr}
 800058e:	4b07      	ldr	r3, [pc, #28]	@ (80005ac <_Invalid_ISR+0x20>)
 8000590:	4807      	ldr	r0, [pc, #28]	@ (80005b0 <_Invalid_ISR+0x24>)
 8000592:	685c      	ldr	r4, [r3, #4]
 8000594:	f3c4 0408 	ubfx	r4, r4, #0, #9
 8000598:	4621      	mov	r1, r4
 800059a:	f002 f939 	bl	8002810 <Uart2_Printf>
 800059e:	4805      	ldr	r0, [pc, #20]	@ (80005b4 <_Invalid_ISR+0x28>)
 80005a0:	f1a4 0110 	sub.w	r1, r4, #16
 80005a4:	f002 f934 	bl	8002810 <Uart2_Printf>
 80005a8:	e7fe      	b.n	80005a8 <_Invalid_ISR+0x1c>
 80005aa:	bf00      	nop
 80005ac:	e000ed00 			@ <UNDEFINED> instruction: e000ed00
 80005b0:	08007bac 			@ <UNDEFINED> instruction: 08007bac
 80005b4:	08007bc8 			@ <UNDEFINED> instruction: 08007bc8

080005b8 <EXTI15_10_IRQHandler>:
 80005b8:	490a      	ldr	r1, [pc, #40]	@ (80005e4 <EXTI15_10_IRQHandler+0x2c>)
 80005ba:	480b      	ldr	r0, [pc, #44]	@ (80005e8 <EXTI15_10_IRQHandler+0x30>)
 80005bc:	680b      	ldr	r3, [r1, #0]
 80005be:	3301      	adds	r3, #1
 80005c0:	425a      	negs	r2, r3
 80005c2:	f002 0203 	and.w	r2, r2, #3
 80005c6:	f003 0303 	and.w	r3, r3, #3
 80005ca:	bf58      	it	pl
 80005cc:	4253      	negpl	r3, r2
 80005ce:	4a07      	ldr	r2, [pc, #28]	@ (80005ec <EXTI15_10_IRQHandler+0x34>)
 80005d0:	600b      	str	r3, [r1, #0]
 80005d2:	f44f 5c00 	mov.w	ip, #8192	@ 0x2000
 80005d6:	f44f 7380 	mov.w	r3, #256	@ 0x100
 80005da:	f8c0 c014 	str.w	ip, [r0, #20]
 80005de:	f8c2 3184 	str.w	r3, [r2, #388]	@ 0x184
 80005e2:	4770      	bx	lr
 80005e4:	200001e0 			@ <UNDEFINED> instruction: 200001e0
 80005e8:	40013c00 			@ <UNDEFINED> instruction: 40013c00
 80005ec:	e000e100 			@ <UNDEFINED> instruction: e000e100

080005f0 <RTC_Alarm_IRQHandler>:
 80005f0:	4b08      	ldr	r3, [pc, #32]	@ (8000614 <RTC_Alarm_IRQHandler+0x24>)
 80005f2:	695a      	ldr	r2, [r3, #20]
 80005f4:	0392      	lsls	r2, r2, #14
 80005f6:	d50b      	bpl.n	8000610 <RTC_Alarm_IRQHandler+0x20>
 80005f8:	4a07      	ldr	r2, [pc, #28]	@ (8000618 <RTC_Alarm_IRQHandler+0x28>)
 80005fa:	2101      	movs	r1, #1
 80005fc:	6011      	str	r1, [r2, #0]
 80005fe:	695a      	ldr	r2, [r3, #20]
 8000600:	4906      	ldr	r1, [pc, #24]	@ (800061c <RTC_Alarm_IRQHandler+0x2c>)
 8000602:	f442 3200 	orr.w	r2, r2, #131072	@ 0x20000
 8000606:	615a      	str	r2, [r3, #20]
 8000608:	68cb      	ldr	r3, [r1, #12]
 800060a:	f423 7380 	bic.w	r3, r3, #256	@ 0x100
 800060e:	60cb      	str	r3, [r1, #12]
 8000610:	4770      	bx	lr
 8000612:	bf00      	nop
 8000614:	40013c00 			@ <UNDEFINED> instruction: 40013c00
 8000618:	200001d8 	ldrdcs	r0, [r0], -r8
 800061c:	40002800 			@ <UNDEFINED> instruction: 40002800

08000620 <Key_Poll_Init>:
 8000620:	4905      	ldr	r1, [pc, #20]	@ (8000638 <Key_Poll_Init+0x18>)
 8000622:	4a06      	ldr	r2, [pc, #24]	@ (800063c <Key_Poll_Init+0x1c>)
 8000624:	6b0b      	ldr	r3, [r1, #48]	@ 0x30
 8000626:	f043 0304 	orr.w	r3, r3, #4
 800062a:	630b      	str	r3, [r1, #48]	@ 0x30
 800062c:	6813      	ldr	r3, [r2, #0]
 800062e:	f023 6340 	bic.w	r3, r3, #201326592	@ 0xc000000
 8000632:	6013      	str	r3, [r2, #0]
 8000634:	4770      	bx	lr
 8000636:	bf00      	nop
 8000638:	40023800 			@ <UNDEFINED> instruction: 40023800
 800063c:	40020800 			@ <UNDEFINED> instruction: 40020800

08000640 <Key_Get_Pressed>:
 8000640:	4b03      	ldr	r3, [pc, #12]	@ (8000650 <Key_Get_Pressed+0x10>)
 8000642:	6918      	ldr	r0, [r3, #16]
 8000644:	f3c0 3040 	ubfx	r0, r0, #13, #1
 8000648:	f080 0001 	eor.w	r0, r0, #1
 800064c:	4770      	bx	lr
 800064e:	bf00      	nop
 8000650:	40020800 			@ <UNDEFINED> instruction: 40020800

08000654 <Key_Wait_Key_Pressed>:
 8000654:	4a02      	ldr	r2, [pc, #8]	@ (8000660 <Key_Wait_Key_Pressed+0xc>)
 8000656:	6913      	ldr	r3, [r2, #16]
 8000658:	049b      	lsls	r3, r3, #18
 800065a:	d4fc      	bmi.n	8000656 <Key_Wait_Key_Pressed+0x2>
 800065c:	4770      	bx	lr
 800065e:	bf00      	nop
 8000660:	40020800 			@ <UNDEFINED> instruction: 40020800

08000664 <Key_Wait_Key_Released>:
 8000664:	4a02      	ldr	r2, [pc, #8]	@ (8000670 <Key_Wait_Key_Released+0xc>)
 8000666:	6913      	ldr	r3, [r2, #16]
 8000668:	049b      	lsls	r3, r3, #18
 800066a:	d5fc      	bpl.n	8000666 <Key_Wait_Key_Released+0x2>
 800066c:	4770      	bx	lr
 800066e:	bf00      	nop
 8000670:	40020800 			@ <UNDEFINED> instruction: 40020800

08000674 <Key_ISR_Enable>:
 8000674:	b340      	cbz	r0, 80006c8 <Key_ISR_Enable+0x54>
 8000676:	4a19      	ldr	r2, [pc, #100]	@ (80006dc <Key_ISR_Enable+0x68>)
 8000678:	4919      	ldr	r1, [pc, #100]	@ (80006e0 <Key_ISR_Enable+0x6c>)
 800067a:	6b13      	ldr	r3, [r2, #48]	@ 0x30
 800067c:	4819      	ldr	r0, [pc, #100]	@ (80006e4 <Key_ISR_Enable+0x70>)
 800067e:	f043 0304 	orr.w	r3, r3, #4
 8000682:	6313      	str	r3, [r2, #48]	@ 0x30
 8000684:	680b      	ldr	r3, [r1, #0]
 8000686:	f023 6340 	bic.w	r3, r3, #201326592	@ 0xc000000
 800068a:	600b      	str	r3, [r1, #0]
 800068c:	6c51      	ldr	r1, [r2, #68]	@ 0x44
 800068e:	4b16      	ldr	r3, [pc, #88]	@ (80006e8 <Key_ISR_Enable+0x74>)
 8000690:	f441 4180 	orr.w	r1, r1, #16384	@ 0x4000
 8000694:	6451      	str	r1, [r2, #68]	@ 0x44
 8000696:	6942      	ldr	r2, [r0, #20]
 8000698:	4914      	ldr	r1, [pc, #80]	@ (80006ec <Key_ISR_Enable+0x78>)
 800069a:	f022 02f0 	bic.w	r2, r2, #240	@ 0xf0
 800069e:	f042 0220 	orr.w	r2, r2, #32
 80006a2:	6142      	str	r2, [r0, #20]
 80006a4:	68da      	ldr	r2, [r3, #12]
 80006a6:	f44f 5c00 	mov.w	ip, #8192	@ 0x2000
 80006aa:	f442 5200 	orr.w	r2, r2, #8192	@ 0x2000
 80006ae:	f44f 7080 	mov.w	r0, #256	@ 0x100
 80006b2:	60da      	str	r2, [r3, #12]
 80006b4:	f8c3 c014 	str.w	ip, [r3, #20]
 80006b8:	f8c1 0184 	str.w	r0, [r1, #388]	@ 0x184
 80006bc:	681a      	ldr	r2, [r3, #0]
 80006be:	ea42 020c 	orr.w	r2, r2, ip
 80006c2:	601a      	str	r2, [r3, #0]
 80006c4:	6048      	str	r0, [r1, #4]
 80006c6:	4770      	bx	lr
 80006c8:	4b08      	ldr	r3, [pc, #32]	@ (80006ec <Key_ISR_Enable+0x78>)
 80006ca:	f44f 7280 	mov.w	r2, #256	@ 0x100
 80006ce:	f8c3 2084 	str.w	r2, [r3, #132]	@ 0x84
 80006d2:	f3bf 8f4f 	dsb	sy
 80006d6:	f3bf 8f6f 	isb	sy
 80006da:	4770      	bx	lr
 80006dc:	40023800 			@ <UNDEFINED> instruction: 40023800
 80006e0:	40020800 			@ <UNDEFINED> instruction: 40020800
 80006e4:	40013800 			@ <UNDEFINED> instruction: 40013800
 80006e8:	40013c00 			@ <UNDEFINED> instruction: 40013c00
 80006ec:	e000e100 			@ <UNDEFINED> instruction: e000e100

080006f0 <LCD_Send_To.constprop.0>:
 80006f0:	b510      	push	{r4, lr}
 80006f2:	f020 0c0f 	bic.w	ip, r0, #15
 80006f6:	ea41 0c0c 	orr.w	ip, r1, ip
 80006fa:	f04c 040c 	orr.w	r4, ip, #12
 80006fe:	4a5a      	ldr	r2, [pc, #360]	@ (8000868 <LCD_Send_To.constprop.0+0x178>)
 8000700:	b082      	sub	sp, #8
 8000702:	b2e4      	uxtb	r4, r4
 8000704:	6993      	ldr	r3, [r2, #24]
 8000706:	079b      	lsls	r3, r3, #30
 8000708:	d4fc      	bmi.n	8000704 <LCD_Send_To.constprop.0+0x14>
 800070a:	6813      	ldr	r3, [r2, #0]
 800070c:	f443 7380 	orr.w	r3, r3, #256	@ 0x100
 8000710:	6013      	str	r3, [r2, #0]
 8000712:	4a55      	ldr	r2, [pc, #340]	@ (8000868 <LCD_Send_To.constprop.0+0x178>)
 8000714:	6953      	ldr	r3, [r2, #20]
 8000716:	07db      	lsls	r3, r3, #31
 8000718:	d5fc      	bpl.n	8000714 <LCD_Send_To.constprop.0+0x24>
 800071a:	234e      	movs	r3, #78	@ 0x4e
 800071c:	6113      	str	r3, [r2, #16]
 800071e:	4a52      	ldr	r2, [pc, #328]	@ (8000868 <LCD_Send_To.constprop.0+0x178>)
 8000720:	6953      	ldr	r3, [r2, #20]
 8000722:	079b      	lsls	r3, r3, #30
 8000724:	d5fc      	bpl.n	8000720 <LCD_Send_To.constprop.0+0x30>
 8000726:	6953      	ldr	r3, [r2, #20]
 8000728:	6993      	ldr	r3, [r2, #24]
 800072a:	4a4f      	ldr	r2, [pc, #316]	@ (8000868 <LCD_Send_To.constprop.0+0x178>)
 800072c:	6953      	ldr	r3, [r2, #20]
 800072e:	061b      	lsls	r3, r3, #24
 8000730:	d5fc      	bpl.n	800072c <LCD_Send_To.constprop.0+0x3c>
 8000732:	6114      	str	r4, [r2, #16]
 8000734:	4a4c      	ldr	r2, [pc, #304]	@ (8000868 <LCD_Send_To.constprop.0+0x178>)
 8000736:	6953      	ldr	r3, [r2, #20]
 8000738:	075c      	lsls	r4, r3, #29
 800073a:	d5fc      	bpl.n	8000736 <LCD_Send_To.constprop.0+0x46>
 800073c:	6813      	ldr	r3, [r2, #0]
 800073e:	f443 7300 	orr.w	r3, r3, #512	@ 0x200
 8000742:	6013      	str	r3, [r2, #0]
 8000744:	2300      	movs	r3, #0
 8000746:	9300      	str	r3, [sp, #0]
 8000748:	9b00      	ldr	r3, [sp, #0]
 800074a:	f241 3287 	movw	r2, #4999	@ 0x1387
 800074e:	4293      	cmp	r3, r2
 8000750:	dc05      	bgt.n	800075e <LCD_Send_To.constprop.0+0x6e>
 8000752:	9b00      	ldr	r3, [sp, #0]
 8000754:	3301      	adds	r3, #1
 8000756:	9300      	str	r3, [sp, #0]
 8000758:	9b00      	ldr	r3, [sp, #0]
 800075a:	4293      	cmp	r3, r2
 800075c:	ddf9      	ble.n	8000752 <LCD_Send_To.constprop.0+0x62>
 800075e:	f04c 0c08 	orr.w	ip, ip, #8
 8000762:	4a41      	ldr	r2, [pc, #260]	@ (8000868 <LCD_Send_To.constprop.0+0x178>)
 8000764:	fa5f f48c 	uxtb.w	r4, ip
 8000768:	6993      	ldr	r3, [r2, #24]
 800076a:	079b      	lsls	r3, r3, #30
 800076c:	d4fc      	bmi.n	8000768 <LCD_Send_To.constprop.0+0x78>
 800076e:	6813      	ldr	r3, [r2, #0]
 8000770:	f443 7380 	orr.w	r3, r3, #256	@ 0x100
 8000774:	6013      	str	r3, [r2, #0]
 8000776:	4a3c      	ldr	r2, [pc, #240]	@ (8000868 <LCD_Send_To.constprop.0+0x178>)
 8000778:	6953      	ldr	r3, [r2, #20]
 800077a:	07db      	lsls	r3, r3, #31
 800077c:	d5fc      	bpl.n	8000778 <LCD_Send_To.constprop.0+0x88>
 800077e:	234e      	movs	r3, #78	@ 0x4e
 8000780:	6113      	str	r3, [r2, #16]
 8000782:	4a39      	ldr	r2, [pc, #228]	@ (8000868 <LCD_Send_To.constprop.0+0x178>)
 8000784:	6953      	ldr	r3, [r2, #20]
 8000786:	079b      	lsls	r3, r3, #30
 8000788:	d5fc      	bpl.n	8000784 <LCD_Send_To.constprop.0+0x94>
 800078a:	6953      	ldr	r3, [r2, #20]
 800078c:	f8df e0d8 	ldr.w	lr, [pc, #216]	@ 8000868 <LCD_Send_To.constprop.0+0x178>
 8000790:	6993      	ldr	r3, [r2, #24]
 8000792:	f8de 3014 	ldr.w	r3, [lr, #20]
 8000796:	061b      	lsls	r3, r3, #24
 8000798:	d5fb      	bpl.n	8000792 <LCD_Send_To.constprop.0+0xa2>
 800079a:	f8df c0cc 	ldr.w	ip, [pc, #204]	@ 8000868 <LCD_Send_To.constprop.0+0x178>
 800079e:	f8ce 4010 	str.w	r4, [lr, #16]
 80007a2:	f8dc 3014 	ldr.w	r3, [ip, #20]
 80007a6:	075c      	lsls	r4, r3, #29
 80007a8:	d5fb      	bpl.n	80007a2 <LCD_Send_To.constprop.0+0xb2>
 80007aa:	f8dc 3000 	ldr.w	r3, [ip]
 80007ae:	4a2e      	ldr	r2, [pc, #184]	@ (8000868 <LCD_Send_To.constprop.0+0x178>)
 80007b0:	ea41 1100 	orr.w	r1, r1, r0, lsl #4
 80007b4:	f443 7300 	orr.w	r3, r3, #512	@ 0x200
 80007b8:	f041 040c 	orr.w	r4, r1, #12
 80007bc:	f8cc 3000 	str.w	r3, [ip]
 80007c0:	b2e4      	uxtb	r4, r4
 80007c2:	6993      	ldr	r3, [r2, #24]
 80007c4:	0798      	lsls	r0, r3, #30
 80007c6:	d4fc      	bmi.n	80007c2 <LCD_Send_To.constprop.0+0xd2>
 80007c8:	6813      	ldr	r3, [r2, #0]
 80007ca:	4827      	ldr	r0, [pc, #156]	@ (8000868 <LCD_Send_To.constprop.0+0x178>)
 80007cc:	f443 7380 	orr.w	r3, r3, #256	@ 0x100
 80007d0:	6013      	str	r3, [r2, #0]
 80007d2:	6943      	ldr	r3, [r0, #20]
 80007d4:	07db      	lsls	r3, r3, #31
 80007d6:	d5fc      	bpl.n	80007d2 <LCD_Send_To.constprop.0+0xe2>
 80007d8:	234e      	movs	r3, #78	@ 0x4e
 80007da:	4a23      	ldr	r2, [pc, #140]	@ (8000868 <LCD_Send_To.constprop.0+0x178>)
 80007dc:	6103      	str	r3, [r0, #16]
 80007de:	6953      	ldr	r3, [r2, #20]
 80007e0:	0798      	lsls	r0, r3, #30
 80007e2:	d5fc      	bpl.n	80007de <LCD_Send_To.constprop.0+0xee>
 80007e4:	6953      	ldr	r3, [r2, #20]
 80007e6:	4820      	ldr	r0, [pc, #128]	@ (8000868 <LCD_Send_To.constprop.0+0x178>)
 80007e8:	6993      	ldr	r3, [r2, #24]
 80007ea:	6943      	ldr	r3, [r0, #20]
 80007ec:	061b      	lsls	r3, r3, #24
 80007ee:	d5fc      	bpl.n	80007ea <LCD_Send_To.constprop.0+0xfa>
 80007f0:	4a1d      	ldr	r2, [pc, #116]	@ (8000868 <LCD_Send_To.constprop.0+0x178>)
 80007f2:	6104      	str	r4, [r0, #16]
 80007f4:	6953      	ldr	r3, [r2, #20]
 80007f6:	0758      	lsls	r0, r3, #29
 80007f8:	d5fc      	bpl.n	80007f4 <LCD_Send_To.constprop.0+0x104>
 80007fa:	6813      	ldr	r3, [r2, #0]
 80007fc:	2000      	movs	r0, #0
 80007fe:	f443 7300 	orr.w	r3, r3, #512	@ 0x200
 8000802:	6013      	str	r3, [r2, #0]
 8000804:	9001      	str	r0, [sp, #4]
 8000806:	9b01      	ldr	r3, [sp, #4]
 8000808:	f241 3287 	movw	r2, #4999	@ 0x1387
 800080c:	4293      	cmp	r3, r2
 800080e:	dc05      	bgt.n	800081c <LCD_Send_To.constprop.0+0x12c>
 8000810:	9b01      	ldr	r3, [sp, #4]
 8000812:	3301      	adds	r3, #1
 8000814:	9301      	str	r3, [sp, #4]
 8000816:	9b01      	ldr	r3, [sp, #4]
 8000818:	4293      	cmp	r3, r2
 800081a:	ddf9      	ble.n	8000810 <LCD_Send_To.constprop.0+0x120>
 800081c:	f041 0108 	orr.w	r1, r1, #8
 8000820:	4a11      	ldr	r2, [pc, #68]	@ (8000868 <LCD_Send_To.constprop.0+0x178>)
 8000822:	b2c9      	uxtb	r1, r1
 8000824:	6993      	ldr	r3, [r2, #24]
 8000826:	079b      	lsls	r3, r3, #30
 8000828:	d4fc      	bmi.n	8000824 <LCD_Send_To.constprop.0+0x134>
 800082a:	6813      	ldr	r3, [r2, #0]
 800082c:	480e      	ldr	r0, [pc, #56]	@ (8000868 <LCD_Send_To.constprop.0+0x178>)
 800082e:	f443 7380 	orr.w	r3, r3, #256	@ 0x100
 8000832:	6013      	str	r3, [r2, #0]
 8000834:	6943      	ldr	r3, [r0, #20]
 8000836:	07dc      	lsls	r4, r3, #31
 8000838:	d5fc      	bpl.n	8000834 <LCD_Send_To.constprop.0+0x144>
 800083a:	234e      	movs	r3, #78	@ 0x4e
 800083c:	4a0a      	ldr	r2, [pc, #40]	@ (8000868 <LCD_Send_To.constprop.0+0x178>)
 800083e:	6103      	str	r3, [r0, #16]
 8000840:	6953      	ldr	r3, [r2, #20]
 8000842:	0798      	lsls	r0, r3, #30
 8000844:	d5fc      	bpl.n	8000840 <LCD_Send_To.constprop.0+0x150>
 8000846:	6953      	ldr	r3, [r2, #20]
 8000848:	4807      	ldr	r0, [pc, #28]	@ (8000868 <LCD_Send_To.constprop.0+0x178>)
 800084a:	6993      	ldr	r3, [r2, #24]
 800084c:	6943      	ldr	r3, [r0, #20]
 800084e:	061a      	lsls	r2, r3, #24
 8000850:	d5fc      	bpl.n	800084c <LCD_Send_To.constprop.0+0x15c>
 8000852:	4a05      	ldr	r2, [pc, #20]	@ (8000868 <LCD_Send_To.constprop.0+0x178>)
 8000854:	6101      	str	r1, [r0, #16]
 8000856:	6953      	ldr	r3, [r2, #20]
 8000858:	075b      	lsls	r3, r3, #29
 800085a:	d5fc      	bpl.n	8000856 <LCD_Send_To.constprop.0+0x166>
 800085c:	6813      	ldr	r3, [r2, #0]
 800085e:	f443 7300 	orr.w	r3, r3, #512	@ 0x200
 8000862:	6013      	str	r3, [r2, #0]
 8000864:	b002      	add	sp, #8
 8000866:	bd10      	pop	{r4, pc}
 8000868:	40005400 			@ <UNDEFINED> instruction: 40005400

0800086c <I2C1_Init>:
 800086c:	491a      	ldr	r1, [pc, #104]	@ (80008d8 <I2C1_Init+0x6c>)
 800086e:	4a1b      	ldr	r2, [pc, #108]	@ (80008dc <I2C1_Init+0x70>)
 8000870:	6b08      	ldr	r0, [r1, #48]	@ 0x30
 8000872:	4b1b      	ldr	r3, [pc, #108]	@ (80008e0 <I2C1_Init+0x74>)
 8000874:	f040 0002 	orr.w	r0, r0, #2
 8000878:	6308      	str	r0, [r1, #48]	@ 0x30
 800087a:	6c08      	ldr	r0, [r1, #64]	@ 0x40
 800087c:	f440 1000 	orr.w	r0, r0, #2097152	@ 0x200000
 8000880:	6408      	str	r0, [r1, #64]	@ 0x40
 8000882:	6811      	ldr	r1, [r2, #0]
 8000884:	f421 2170 	bic.w	r1, r1, #983040	@ 0xf0000
 8000888:	f441 2120 	orr.w	r1, r1, #655360	@ 0xa0000
 800088c:	6011      	str	r1, [r2, #0]
 800088e:	6851      	ldr	r1, [r2, #4]
 8000890:	f441 7140 	orr.w	r1, r1, #768	@ 0x300
 8000894:	6051      	str	r1, [r2, #4]
 8000896:	68d1      	ldr	r1, [r2, #12]
 8000898:	f421 2170 	bic.w	r1, r1, #983040	@ 0xf0000
 800089c:	f441 21a0 	orr.w	r1, r1, #327680	@ 0x50000
 80008a0:	60d1      	str	r1, [r2, #12]
 80008a2:	6a51      	ldr	r1, [r2, #36]	@ 0x24
 80008a4:	f021 01ff 	bic.w	r1, r1, #255	@ 0xff
 80008a8:	f041 0144 	orr.w	r1, r1, #68	@ 0x44
 80008ac:	6251      	str	r1, [r2, #36]	@ 0x24
 80008ae:	681a      	ldr	r2, [r3, #0]
 80008b0:	f442 4200 	orr.w	r2, r2, #32768	@ 0x8000
 80008b4:	601a      	str	r2, [r3, #0]
 80008b6:	681a      	ldr	r2, [r3, #0]
 80008b8:	202a      	movs	r0, #42	@ 0x2a
 80008ba:	f422 4200 	bic.w	r2, r2, #32768	@ 0x8000
 80008be:	f04f 0cd2 	mov.w	ip, #210	@ 0xd2
 80008c2:	212b      	movs	r1, #43	@ 0x2b
 80008c4:	601a      	str	r2, [r3, #0]
 80008c6:	6058      	str	r0, [r3, #4]
 80008c8:	f8c3 c01c 	str.w	ip, [r3, #28]
 80008cc:	6219      	str	r1, [r3, #32]
 80008ce:	681a      	ldr	r2, [r3, #0]
 80008d0:	f042 0201 	orr.w	r2, r2, #1
 80008d4:	601a      	str	r2, [r3, #0]
 80008d6:	4770      	bx	lr
 80008d8:	40023800 			@ <UNDEFINED> instruction: 40023800
 80008dc:	40020400 			@ <UNDEFINED> instruction: 40020400
 80008e0:	40005400 			@ <UNDEFINED> instruction: 40005400

080008e4 <I2C1_Write_Byte_To>:
 80008e4:	4a11      	ldr	r2, [pc, #68]	@ (800092c <I2C1_Write_Byte_To+0x48>)
 80008e6:	468c      	mov	ip, r1
 80008e8:	6993      	ldr	r3, [r2, #24]
 80008ea:	0799      	lsls	r1, r3, #30
 80008ec:	d4fc      	bmi.n	80008e8 <I2C1_Write_Byte_To+0x4>
 80008ee:	6813      	ldr	r3, [r2, #0]
 80008f0:	490e      	ldr	r1, [pc, #56]	@ (800092c <I2C1_Write_Byte_To+0x48>)
 80008f2:	f443 7380 	orr.w	r3, r3, #256	@ 0x100
 80008f6:	6013      	str	r3, [r2, #0]
 80008f8:	694b      	ldr	r3, [r1, #20]
 80008fa:	07db      	lsls	r3, r3, #31
 80008fc:	d5fc      	bpl.n	80008f8 <I2C1_Write_Byte_To+0x14>
 80008fe:	4a0b      	ldr	r2, [pc, #44]	@ (800092c <I2C1_Write_Byte_To+0x48>)
 8000900:	6108      	str	r0, [r1, #16]
 8000902:	6953      	ldr	r3, [r2, #20]
 8000904:	0799      	lsls	r1, r3, #30
 8000906:	d5fc      	bpl.n	8000902 <I2C1_Write_Byte_To+0x1e>
 8000908:	6953      	ldr	r3, [r2, #20]
 800090a:	4808      	ldr	r0, [pc, #32]	@ (800092c <I2C1_Write_Byte_To+0x48>)
 800090c:	6993      	ldr	r3, [r2, #24]
 800090e:	6943      	ldr	r3, [r0, #20]
 8000910:	061a      	lsls	r2, r3, #24
 8000912:	d5fc      	bpl.n	800090e <I2C1_Write_Byte_To+0x2a>
 8000914:	4a05      	ldr	r2, [pc, #20]	@ (800092c <I2C1_Write_Byte_To+0x48>)
 8000916:	f8c0 c010 	str.w	ip, [r0, #16]
 800091a:	6953      	ldr	r3, [r2, #20]
 800091c:	075b      	lsls	r3, r3, #29
 800091e:	d5fc      	bpl.n	800091a <I2C1_Write_Byte_To+0x36>
 8000920:	6813      	ldr	r3, [r2, #0]
 8000922:	f443 7300 	orr.w	r3, r3, #512	@ 0x200
 8000926:	6013      	str	r3, [r2, #0]
 8000928:	4770      	bx	lr
 800092a:	bf00      	nop
 800092c:	40005400 			@ <UNDEFINED> instruction: 40005400

08000930 <I2C1_Write_Byte>:
 8000930:	4a10      	ldr	r2, [pc, #64]	@ (8000974 <I2C1_Write_Byte+0x44>)
 8000932:	6993      	ldr	r3, [r2, #24]
 8000934:	0799      	lsls	r1, r3, #30
 8000936:	d4fc      	bmi.n	8000932 <I2C1_Write_Byte+0x2>
 8000938:	6813      	ldr	r3, [r2, #0]
 800093a:	490e      	ldr	r1, [pc, #56]	@ (8000974 <I2C1_Write_Byte+0x44>)
 800093c:	f443 7380 	orr.w	r3, r3, #256	@ 0x100
 8000940:	6013      	str	r3, [r2, #0]
 8000942:	694b      	ldr	r3, [r1, #20]
 8000944:	07db      	lsls	r3, r3, #31
 8000946:	d5fc      	bpl.n	8000942 <I2C1_Write_Byte+0x12>
 8000948:	234e      	movs	r3, #78	@ 0x4e
 800094a:	4a0a      	ldr	r2, [pc, #40]	@ (8000974 <I2C1_Write_Byte+0x44>)
 800094c:	610b      	str	r3, [r1, #16]
 800094e:	6953      	ldr	r3, [r2, #20]
 8000950:	0799      	lsls	r1, r3, #30
 8000952:	d5fc      	bpl.n	800094e <I2C1_Write_Byte+0x1e>
 8000954:	6953      	ldr	r3, [r2, #20]
 8000956:	4907      	ldr	r1, [pc, #28]	@ (8000974 <I2C1_Write_Byte+0x44>)
 8000958:	6993      	ldr	r3, [r2, #24]
 800095a:	694b      	ldr	r3, [r1, #20]
 800095c:	061a      	lsls	r2, r3, #24
 800095e:	d5fc      	bpl.n	800095a <I2C1_Write_Byte+0x2a>
 8000960:	4a04      	ldr	r2, [pc, #16]	@ (8000974 <I2C1_Write_Byte+0x44>)
 8000962:	6108      	str	r0, [r1, #16]
 8000964:	6953      	ldr	r3, [r2, #20]
 8000966:	075b      	lsls	r3, r3, #29
 8000968:	d5fc      	bpl.n	8000964 <I2C1_Write_Byte+0x34>
 800096a:	6813      	ldr	r3, [r2, #0]
 800096c:	f443 7300 	orr.w	r3, r3, #512	@ 0x200
 8000970:	6013      	str	r3, [r2, #0]
 8000972:	4770      	bx	lr
 8000974:	40005400 			@ <UNDEFINED> instruction: 40005400

08000978 <LCD_Send_To>:
 8000978:	b510      	push	{r4, lr}
 800097a:	f021 0e0f 	bic.w	lr, r1, #15
 800097e:	ea42 0e0e 	orr.w	lr, r2, lr
 8000982:	f04e 040c 	orr.w	r4, lr, #12
 8000986:	f8df c174 	ldr.w	ip, [pc, #372]	@ 8000afc <LCD_Send_To+0x184>
 800098a:	b082      	sub	sp, #8
 800098c:	b2e4      	uxtb	r4, r4
 800098e:	f8dc 3018 	ldr.w	r3, [ip, #24]
 8000992:	079b      	lsls	r3, r3, #30
 8000994:	d4fb      	bmi.n	800098e <LCD_Send_To+0x16>
 8000996:	f8dc 3000 	ldr.w	r3, [ip]
 800099a:	f443 7380 	orr.w	r3, r3, #256	@ 0x100
 800099e:	f8cc 3000 	str.w	r3, [ip]
 80009a2:	f8df c158 	ldr.w	ip, [pc, #344]	@ 8000afc <LCD_Send_To+0x184>
 80009a6:	f8dc 3014 	ldr.w	r3, [ip, #20]
 80009aa:	07db      	lsls	r3, r3, #31
 80009ac:	d5fb      	bpl.n	80009a6 <LCD_Send_To+0x2e>
 80009ae:	f8cc 0010 	str.w	r0, [ip, #16]
 80009b2:	f8df c148 	ldr.w	ip, [pc, #328]	@ 8000afc <LCD_Send_To+0x184>
 80009b6:	f8dc 3014 	ldr.w	r3, [ip, #20]
 80009ba:	079b      	lsls	r3, r3, #30
 80009bc:	d5fb      	bpl.n	80009b6 <LCD_Send_To+0x3e>
 80009be:	f8dc 3014 	ldr.w	r3, [ip, #20]
 80009c2:	f8dc 3018 	ldr.w	r3, [ip, #24]
 80009c6:	f8df c134 	ldr.w	ip, [pc, #308]	@ 8000afc <LCD_Send_To+0x184>
 80009ca:	f8dc 3014 	ldr.w	r3, [ip, #20]
 80009ce:	061b      	lsls	r3, r3, #24
 80009d0:	d5fb      	bpl.n	80009ca <LCD_Send_To+0x52>
 80009d2:	f8cc 4010 	str.w	r4, [ip, #16]
 80009d6:	4c49      	ldr	r4, [pc, #292]	@ (8000afc <LCD_Send_To+0x184>)
 80009d8:	6963      	ldr	r3, [r4, #20]
 80009da:	075b      	lsls	r3, r3, #29
 80009dc:	d5fc      	bpl.n	80009d8 <LCD_Send_To+0x60>
 80009de:	6823      	ldr	r3, [r4, #0]
 80009e0:	f443 7300 	orr.w	r3, r3, #512	@ 0x200
 80009e4:	6023      	str	r3, [r4, #0]
 80009e6:	2300      	movs	r3, #0
 80009e8:	9300      	str	r3, [sp, #0]
 80009ea:	9b00      	ldr	r3, [sp, #0]
 80009ec:	f241 3c87 	movw	ip, #4999	@ 0x1387
 80009f0:	4563      	cmp	r3, ip
 80009f2:	dc05      	bgt.n	8000a00 <LCD_Send_To+0x88>
 80009f4:	9b00      	ldr	r3, [sp, #0]
 80009f6:	3301      	adds	r3, #1
 80009f8:	9300      	str	r3, [sp, #0]
 80009fa:	9b00      	ldr	r3, [sp, #0]
 80009fc:	4563      	cmp	r3, ip
 80009fe:	ddf9      	ble.n	80009f4 <LCD_Send_To+0x7c>
 8000a00:	f04e 0e08 	orr.w	lr, lr, #8
 8000a04:	4c3d      	ldr	r4, [pc, #244]	@ (8000afc <LCD_Send_To+0x184>)
 8000a06:	fa5f fe8e 	uxtb.w	lr, lr
 8000a0a:	69a3      	ldr	r3, [r4, #24]
 8000a0c:	079b      	lsls	r3, r3, #30
 8000a0e:	d4fc      	bmi.n	8000a0a <LCD_Send_To+0x92>
 8000a10:	6823      	ldr	r3, [r4, #0]
 8000a12:	f443 7380 	orr.w	r3, r3, #256	@ 0x100
 8000a16:	6023      	str	r3, [r4, #0]
 8000a18:	4c38      	ldr	r4, [pc, #224]	@ (8000afc <LCD_Send_To+0x184>)
 8000a1a:	6963      	ldr	r3, [r4, #20]
 8000a1c:	07db      	lsls	r3, r3, #31
 8000a1e:	d5fc      	bpl.n	8000a1a <LCD_Send_To+0xa2>
 8000a20:	6120      	str	r0, [r4, #16]
 8000a22:	4c36      	ldr	r4, [pc, #216]	@ (8000afc <LCD_Send_To+0x184>)
 8000a24:	6963      	ldr	r3, [r4, #20]
 8000a26:	079b      	lsls	r3, r3, #30
 8000a28:	d5fc      	bpl.n	8000a24 <LCD_Send_To+0xac>
 8000a2a:	6963      	ldr	r3, [r4, #20]
 8000a2c:	69a3      	ldr	r3, [r4, #24]
 8000a2e:	4c33      	ldr	r4, [pc, #204]	@ (8000afc <LCD_Send_To+0x184>)
 8000a30:	6963      	ldr	r3, [r4, #20]
 8000a32:	061b      	lsls	r3, r3, #24
 8000a34:	d5fc      	bpl.n	8000a30 <LCD_Send_To+0xb8>
 8000a36:	f8c4 e010 	str.w	lr, [r4, #16]
 8000a3a:	4c30      	ldr	r4, [pc, #192]	@ (8000afc <LCD_Send_To+0x184>)
 8000a3c:	6963      	ldr	r3, [r4, #20]
 8000a3e:	075b      	lsls	r3, r3, #29
 8000a40:	d5fc      	bpl.n	8000a3c <LCD_Send_To+0xc4>
 8000a42:	6823      	ldr	r3, [r4, #0]
 8000a44:	ea42 1201 	orr.w	r2, r2, r1, lsl #4
 8000a48:	f443 7300 	orr.w	r3, r3, #512	@ 0x200
 8000a4c:	f042 0e0c 	orr.w	lr, r2, #12
 8000a50:	492a      	ldr	r1, [pc, #168]	@ (8000afc <LCD_Send_To+0x184>)
 8000a52:	6023      	str	r3, [r4, #0]
 8000a54:	fa5f fe8e 	uxtb.w	lr, lr
 8000a58:	698b      	ldr	r3, [r1, #24]
 8000a5a:	079c      	lsls	r4, r3, #30
 8000a5c:	d4fc      	bmi.n	8000a58 <LCD_Send_To+0xe0>
 8000a5e:	680b      	ldr	r3, [r1, #0]
 8000a60:	4c26      	ldr	r4, [pc, #152]	@ (8000afc <LCD_Send_To+0x184>)
 8000a62:	f443 7380 	orr.w	r3, r3, #256	@ 0x100
 8000a66:	600b      	str	r3, [r1, #0]
 8000a68:	6963      	ldr	r3, [r4, #20]
 8000a6a:	07db      	lsls	r3, r3, #31
 8000a6c:	d5fc      	bpl.n	8000a68 <LCD_Send_To+0xf0>
 8000a6e:	4923      	ldr	r1, [pc, #140]	@ (8000afc <LCD_Send_To+0x184>)
 8000a70:	6120      	str	r0, [r4, #16]
 8000a72:	694b      	ldr	r3, [r1, #20]
 8000a74:	079c      	lsls	r4, r3, #30
 8000a76:	d5fc      	bpl.n	8000a72 <LCD_Send_To+0xfa>
 8000a78:	694b      	ldr	r3, [r1, #20]
 8000a7a:	4c20      	ldr	r4, [pc, #128]	@ (8000afc <LCD_Send_To+0x184>)
 8000a7c:	698b      	ldr	r3, [r1, #24]
 8000a7e:	6963      	ldr	r3, [r4, #20]
 8000a80:	061b      	lsls	r3, r3, #24
 8000a82:	d5fc      	bpl.n	8000a7e <LCD_Send_To+0x106>
 8000a84:	491d      	ldr	r1, [pc, #116]	@ (8000afc <LCD_Send_To+0x184>)
 8000a86:	f8c4 e010 	str.w	lr, [r4, #16]
 8000a8a:	694b      	ldr	r3, [r1, #20]
 8000a8c:	075c      	lsls	r4, r3, #29
 8000a8e:	d5fc      	bpl.n	8000a8a <LCD_Send_To+0x112>
 8000a90:	680b      	ldr	r3, [r1, #0]
 8000a92:	2400      	movs	r4, #0
 8000a94:	f443 7300 	orr.w	r3, r3, #512	@ 0x200
 8000a98:	600b      	str	r3, [r1, #0]
 8000a9a:	9401      	str	r4, [sp, #4]
 8000a9c:	9b01      	ldr	r3, [sp, #4]
 8000a9e:	f241 3187 	movw	r1, #4999	@ 0x1387
 8000aa2:	428b      	cmp	r3, r1
 8000aa4:	dc05      	bgt.n	8000ab2 <LCD_Send_To+0x13a>
 8000aa6:	9b01      	ldr	r3, [sp, #4]
 8000aa8:	3301      	adds	r3, #1
 8000aaa:	9301      	str	r3, [sp, #4]
 8000aac:	9b01      	ldr	r3, [sp, #4]
 8000aae:	428b      	cmp	r3, r1
 8000ab0:	ddf9      	ble.n	8000aa6 <LCD_Send_To+0x12e>
 8000ab2:	f042 0208 	orr.w	r2, r2, #8
 8000ab6:	4911      	ldr	r1, [pc, #68]	@ (8000afc <LCD_Send_To+0x184>)
 8000ab8:	b2d4      	uxtb	r4, r2
 8000aba:	698b      	ldr	r3, [r1, #24]
 8000abc:	079a      	lsls	r2, r3, #30
 8000abe:	d4fc      	bmi.n	8000aba <LCD_Send_To+0x142>
 8000ac0:	680b      	ldr	r3, [r1, #0]
 8000ac2:	4a0e      	ldr	r2, [pc, #56]	@ (8000afc <LCD_Send_To+0x184>)
 8000ac4:	f443 7380 	orr.w	r3, r3, #256	@ 0x100
 8000ac8:	600b      	str	r3, [r1, #0]
 8000aca:	6953      	ldr	r3, [r2, #20]
 8000acc:	07db      	lsls	r3, r3, #31
 8000ace:	d5fc      	bpl.n	8000aca <LCD_Send_To+0x152>
 8000ad0:	490a      	ldr	r1, [pc, #40]	@ (8000afc <LCD_Send_To+0x184>)
 8000ad2:	6110      	str	r0, [r2, #16]
 8000ad4:	694b      	ldr	r3, [r1, #20]
 8000ad6:	0798      	lsls	r0, r3, #30
 8000ad8:	d5fc      	bpl.n	8000ad4 <LCD_Send_To+0x15c>
 8000ada:	694b      	ldr	r3, [r1, #20]
 8000adc:	4807      	ldr	r0, [pc, #28]	@ (8000afc <LCD_Send_To+0x184>)
 8000ade:	698b      	ldr	r3, [r1, #24]
 8000ae0:	6943      	ldr	r3, [r0, #20]
 8000ae2:	061a      	lsls	r2, r3, #24
 8000ae4:	d5fc      	bpl.n	8000ae0 <LCD_Send_To+0x168>
 8000ae6:	4905      	ldr	r1, [pc, #20]	@ (8000afc <LCD_Send_To+0x184>)
 8000ae8:	6104      	str	r4, [r0, #16]
 8000aea:	694b      	ldr	r3, [r1, #20]
 8000aec:	075b      	lsls	r3, r3, #29
 8000aee:	d5fc      	bpl.n	8000aea <LCD_Send_To+0x172>
 8000af0:	680b      	ldr	r3, [r1, #0]
 8000af2:	f443 7300 	orr.w	r3, r3, #512	@ 0x200
 8000af6:	600b      	str	r3, [r1, #0]
 8000af8:	b002      	add	sp, #8
 8000afa:	bd10      	pop	{r4, pc}
 8000afc:	40005400 			@ <UNDEFINED> instruction: 40005400

08000b00 <LCD_Cmd_To>:
 8000b00:	2200      	movs	r2, #0
 8000b02:	f7ff bf39 	b.w	8000978 <LCD_Send_To>
 8000b06:	bf00      	nop

08000b08 <LCD_Data_To>:
 8000b08:	2201      	movs	r2, #1
 8000b0a:	f7ff bf35 	b.w	8000978 <LCD_Send_To>
 8000b0e:	bf00      	nop

08000b10 <LCD_Send>:
 8000b10:	e5ee      	b.n	80006f0 <LCD_Send_To.constprop.0>
 8000b12:	bf00      	nop

08000b14 <LCD_Cmd>:
 8000b14:	2100      	movs	r1, #0
 8000b16:	e5eb      	b.n	80006f0 <LCD_Send_To.constprop.0>

08000b18 <LCD_Data>:
 8000b18:	2101      	movs	r1, #1
 8000b1a:	e5e9      	b.n	80006f0 <LCD_Send_To.constprop.0>

08000b1c <LCD_Init_To>:
 8000b1c:	b510      	push	{r4, lr}
 8000b1e:	4604      	mov	r4, r0
 8000b20:	b088      	sub	sp, #32
 8000b22:	2032      	movs	r0, #50	@ 0x32
 8000b24:	f001 fbd4 	bl	80022d0 <TIM2_Delay>
 8000b28:	4a80      	ldr	r2, [pc, #512]	@ (8000d2c <LCD_Init_To+0x210>)
 8000b2a:	6993      	ldr	r3, [r2, #24]
 8000b2c:	0799      	lsls	r1, r3, #30
 8000b2e:	d4fc      	bmi.n	8000b2a <LCD_Init_To+0xe>
 8000b30:	6813      	ldr	r3, [r2, #0]
 8000b32:	497e      	ldr	r1, [pc, #504]	@ (8000d2c <LCD_Init_To+0x210>)
 8000b34:	f443 7380 	orr.w	r3, r3, #256	@ 0x100
 8000b38:	6013      	str	r3, [r2, #0]
 8000b3a:	694b      	ldr	r3, [r1, #20]
 8000b3c:	07da      	lsls	r2, r3, #31
 8000b3e:	d5fc      	bpl.n	8000b3a <LCD_Init_To+0x1e>
 8000b40:	4a7a      	ldr	r2, [pc, #488]	@ (8000d2c <LCD_Init_To+0x210>)
 8000b42:	610c      	str	r4, [r1, #16]
 8000b44:	6953      	ldr	r3, [r2, #20]
 8000b46:	079b      	lsls	r3, r3, #30
 8000b48:	d5fc      	bpl.n	8000b44 <LCD_Init_To+0x28>
 8000b4a:	6953      	ldr	r3, [r2, #20]
 8000b4c:	4977      	ldr	r1, [pc, #476]	@ (8000d2c <LCD_Init_To+0x210>)
 8000b4e:	6993      	ldr	r3, [r2, #24]
 8000b50:	694b      	ldr	r3, [r1, #20]
 8000b52:	0618      	lsls	r0, r3, #24
 8000b54:	d5fc      	bpl.n	8000b50 <LCD_Init_To+0x34>
 8000b56:	230c      	movs	r3, #12
 8000b58:	4a74      	ldr	r2, [pc, #464]	@ (8000d2c <LCD_Init_To+0x210>)
 8000b5a:	610b      	str	r3, [r1, #16]
 8000b5c:	6953      	ldr	r3, [r2, #20]
 8000b5e:	0759      	lsls	r1, r3, #29
 8000b60:	d5fc      	bpl.n	8000b5c <LCD_Init_To+0x40>
 8000b62:	6813      	ldr	r3, [r2, #0]
 8000b64:	2100      	movs	r1, #0
 8000b66:	f443 7300 	orr.w	r3, r3, #512	@ 0x200
 8000b6a:	6013      	str	r3, [r2, #0]
 8000b6c:	9106      	str	r1, [sp, #24]
 8000b6e:	9b06      	ldr	r3, [sp, #24]
 8000b70:	f241 3287 	movw	r2, #4999	@ 0x1387
 8000b74:	4293      	cmp	r3, r2
 8000b76:	dc05      	bgt.n	8000b84 <LCD_Init_To+0x68>
 8000b78:	9b06      	ldr	r3, [sp, #24]
 8000b7a:	3301      	adds	r3, #1
 8000b7c:	9306      	str	r3, [sp, #24]
 8000b7e:	9b06      	ldr	r3, [sp, #24]
 8000b80:	4293      	cmp	r3, r2
 8000b82:	ddf9      	ble.n	8000b78 <LCD_Init_To+0x5c>
 8000b84:	4a69      	ldr	r2, [pc, #420]	@ (8000d2c <LCD_Init_To+0x210>)
 8000b86:	6993      	ldr	r3, [r2, #24]
 8000b88:	079b      	lsls	r3, r3, #30
 8000b8a:	d4fc      	bmi.n	8000b86 <LCD_Init_To+0x6a>
 8000b8c:	6813      	ldr	r3, [r2, #0]
 8000b8e:	4967      	ldr	r1, [pc, #412]	@ (8000d2c <LCD_Init_To+0x210>)
 8000b90:	f443 7380 	orr.w	r3, r3, #256	@ 0x100
 8000b94:	6013      	str	r3, [r2, #0]
 8000b96:	694b      	ldr	r3, [r1, #20]
 8000b98:	07d8      	lsls	r0, r3, #31
 8000b9a:	d5fc      	bpl.n	8000b96 <LCD_Init_To+0x7a>
 8000b9c:	4a63      	ldr	r2, [pc, #396]	@ (8000d2c <LCD_Init_To+0x210>)
 8000b9e:	610c      	str	r4, [r1, #16]
 8000ba0:	6953      	ldr	r3, [r2, #20]
 8000ba2:	0799      	lsls	r1, r3, #30
 8000ba4:	d5fc      	bpl.n	8000ba0 <LCD_Init_To+0x84>
 8000ba6:	6953      	ldr	r3, [r2, #20]
 8000ba8:	4860      	ldr	r0, [pc, #384]	@ (8000d2c <LCD_Init_To+0x210>)
 8000baa:	6993      	ldr	r3, [r2, #24]
 8000bac:	6943      	ldr	r3, [r0, #20]
 8000bae:	061b      	lsls	r3, r3, #24
 8000bb0:	d5fc      	bpl.n	8000bac <LCD_Init_To+0x90>
 8000bb2:	2308      	movs	r3, #8
 8000bb4:	495d      	ldr	r1, [pc, #372]	@ (8000d2c <LCD_Init_To+0x210>)
 8000bb6:	6103      	str	r3, [r0, #16]
 8000bb8:	694b      	ldr	r3, [r1, #20]
 8000bba:	0758      	lsls	r0, r3, #29
 8000bbc:	d5fc      	bpl.n	8000bb8 <LCD_Init_To+0x9c>
 8000bbe:	680b      	ldr	r3, [r1, #0]
 8000bc0:	4a5a      	ldr	r2, [pc, #360]	@ (8000d2c <LCD_Init_To+0x210>)
 8000bc2:	f443 7300 	orr.w	r3, r3, #512	@ 0x200
 8000bc6:	600b      	str	r3, [r1, #0]
 8000bc8:	6993      	ldr	r3, [r2, #24]
 8000bca:	0799      	lsls	r1, r3, #30
 8000bcc:	d4fc      	bmi.n	8000bc8 <LCD_Init_To+0xac>
 8000bce:	6813      	ldr	r3, [r2, #0]
 8000bd0:	4956      	ldr	r1, [pc, #344]	@ (8000d2c <LCD_Init_To+0x210>)
 8000bd2:	f443 7380 	orr.w	r3, r3, #256	@ 0x100
 8000bd6:	6013      	str	r3, [r2, #0]
 8000bd8:	694b      	ldr	r3, [r1, #20]
 8000bda:	07da      	lsls	r2, r3, #31
 8000bdc:	d5fc      	bpl.n	8000bd8 <LCD_Init_To+0xbc>
 8000bde:	4a53      	ldr	r2, [pc, #332]	@ (8000d2c <LCD_Init_To+0x210>)
 8000be0:	610c      	str	r4, [r1, #16]
 8000be2:	6953      	ldr	r3, [r2, #20]
 8000be4:	079b      	lsls	r3, r3, #30
 8000be6:	d5fc      	bpl.n	8000be2 <LCD_Init_To+0xc6>
 8000be8:	6953      	ldr	r3, [r2, #20]
 8000bea:	4950      	ldr	r1, [pc, #320]	@ (8000d2c <LCD_Init_To+0x210>)
 8000bec:	6993      	ldr	r3, [r2, #24]
 8000bee:	694b      	ldr	r3, [r1, #20]
 8000bf0:	0618      	lsls	r0, r3, #24
 8000bf2:	d5fc      	bpl.n	8000bee <LCD_Init_To+0xd2>
 8000bf4:	232c      	movs	r3, #44	@ 0x2c
 8000bf6:	4a4d      	ldr	r2, [pc, #308]	@ (8000d2c <LCD_Init_To+0x210>)
 8000bf8:	610b      	str	r3, [r1, #16]
 8000bfa:	6953      	ldr	r3, [r2, #20]
 8000bfc:	0759      	lsls	r1, r3, #29
 8000bfe:	d5fc      	bpl.n	8000bfa <LCD_Init_To+0xde>
 8000c00:	6813      	ldr	r3, [r2, #0]
 8000c02:	2100      	movs	r1, #0
 8000c04:	f443 7300 	orr.w	r3, r3, #512	@ 0x200
 8000c08:	6013      	str	r3, [r2, #0]
 8000c0a:	9107      	str	r1, [sp, #28]
 8000c0c:	9b07      	ldr	r3, [sp, #28]
 8000c0e:	f241 3287 	movw	r2, #4999	@ 0x1387
 8000c12:	4293      	cmp	r3, r2
 8000c14:	dc05      	bgt.n	8000c22 <LCD_Init_To+0x106>
 8000c16:	9b07      	ldr	r3, [sp, #28]
 8000c18:	3301      	adds	r3, #1
 8000c1a:	9307      	str	r3, [sp, #28]
 8000c1c:	9b07      	ldr	r3, [sp, #28]
 8000c1e:	4293      	cmp	r3, r2
 8000c20:	ddf9      	ble.n	8000c16 <LCD_Init_To+0xfa>
 8000c22:	4a42      	ldr	r2, [pc, #264]	@ (8000d2c <LCD_Init_To+0x210>)
 8000c24:	6993      	ldr	r3, [r2, #24]
 8000c26:	079b      	lsls	r3, r3, #30
 8000c28:	d4fc      	bmi.n	8000c24 <LCD_Init_To+0x108>
 8000c2a:	6813      	ldr	r3, [r2, #0]
 8000c2c:	493f      	ldr	r1, [pc, #252]	@ (8000d2c <LCD_Init_To+0x210>)
 8000c2e:	f443 7380 	orr.w	r3, r3, #256	@ 0x100
 8000c32:	6013      	str	r3, [r2, #0]
 8000c34:	694b      	ldr	r3, [r1, #20]
 8000c36:	07d8      	lsls	r0, r3, #31
 8000c38:	d5fc      	bpl.n	8000c34 <LCD_Init_To+0x118>
 8000c3a:	4a3c      	ldr	r2, [pc, #240]	@ (8000d2c <LCD_Init_To+0x210>)
 8000c3c:	610c      	str	r4, [r1, #16]
 8000c3e:	6953      	ldr	r3, [r2, #20]
 8000c40:	0799      	lsls	r1, r3, #30
 8000c42:	d5fc      	bpl.n	8000c3e <LCD_Init_To+0x122>
 8000c44:	6953      	ldr	r3, [r2, #20]
 8000c46:	4839      	ldr	r0, [pc, #228]	@ (8000d2c <LCD_Init_To+0x210>)
 8000c48:	6993      	ldr	r3, [r2, #24]
 8000c4a:	6943      	ldr	r3, [r0, #20]
 8000c4c:	061b      	lsls	r3, r3, #24
 8000c4e:	d5fc      	bpl.n	8000c4a <LCD_Init_To+0x12e>
 8000c50:	2328      	movs	r3, #40	@ 0x28
 8000c52:	4936      	ldr	r1, [pc, #216]	@ (8000d2c <LCD_Init_To+0x210>)
 8000c54:	6103      	str	r3, [r0, #16]
 8000c56:	694b      	ldr	r3, [r1, #20]
 8000c58:	0758      	lsls	r0, r3, #29
 8000c5a:	d5fc      	bpl.n	8000c56 <LCD_Init_To+0x13a>
 8000c5c:	680b      	ldr	r3, [r1, #0]
 8000c5e:	4a33      	ldr	r2, [pc, #204]	@ (8000d2c <LCD_Init_To+0x210>)
 8000c60:	f443 7300 	orr.w	r3, r3, #512	@ 0x200
 8000c64:	600b      	str	r3, [r1, #0]
 8000c66:	6993      	ldr	r3, [r2, #24]
 8000c68:	0799      	lsls	r1, r3, #30
 8000c6a:	d4fc      	bmi.n	8000c66 <LCD_Init_To+0x14a>
 8000c6c:	6813      	ldr	r3, [r2, #0]
 8000c6e:	492f      	ldr	r1, [pc, #188]	@ (8000d2c <LCD_Init_To+0x210>)
 8000c70:	f443 7380 	orr.w	r3, r3, #256	@ 0x100
 8000c74:	6013      	str	r3, [r2, #0]
 8000c76:	694b      	ldr	r3, [r1, #20]
 8000c78:	07da      	lsls	r2, r3, #31
 8000c7a:	d5fc      	bpl.n	8000c76 <LCD_Init_To+0x15a>
 8000c7c:	4a2b      	ldr	r2, [pc, #172]	@ (8000d2c <LCD_Init_To+0x210>)
 8000c7e:	610c      	str	r4, [r1, #16]
 8000c80:	6953      	ldr	r3, [r2, #20]
 8000c82:	079b      	lsls	r3, r3, #30
 8000c84:	d5fc      	bpl.n	8000c80 <LCD_Init_To+0x164>
 8000c86:	6953      	ldr	r3, [r2, #20]
 8000c88:	4928      	ldr	r1, [pc, #160]	@ (8000d2c <LCD_Init_To+0x210>)
 8000c8a:	6993      	ldr	r3, [r2, #24]
 8000c8c:	694b      	ldr	r3, [r1, #20]
 8000c8e:	0618      	lsls	r0, r3, #24
 8000c90:	d5fc      	bpl.n	8000c8c <LCD_Init_To+0x170>
 8000c92:	232c      	movs	r3, #44	@ 0x2c
 8000c94:	4a25      	ldr	r2, [pc, #148]	@ (8000d2c <LCD_Init_To+0x210>)
 8000c96:	610b      	str	r3, [r1, #16]
 8000c98:	6953      	ldr	r3, [r2, #20]
 8000c9a:	0759      	lsls	r1, r3, #29
 8000c9c:	d5fc      	bpl.n	8000c98 <LCD_Init_To+0x17c>
 8000c9e:	6813      	ldr	r3, [r2, #0]
 8000ca0:	2100      	movs	r1, #0
 8000ca2:	f443 7300 	orr.w	r3, r3, #512	@ 0x200
 8000ca6:	6013      	str	r3, [r2, #0]
 8000ca8:	9104      	str	r1, [sp, #16]
 8000caa:	9b04      	ldr	r3, [sp, #16]
 8000cac:	f241 3287 	movw	r2, #4999	@ 0x1387
 8000cb0:	4293      	cmp	r3, r2
 8000cb2:	dc05      	bgt.n	8000cc0 <LCD_Init_To+0x1a4>
 8000cb4:	9b04      	ldr	r3, [sp, #16]
 8000cb6:	3301      	adds	r3, #1
 8000cb8:	9304      	str	r3, [sp, #16]
 8000cba:	9b04      	ldr	r3, [sp, #16]
 8000cbc:	4293      	cmp	r3, r2
 8000cbe:	ddf9      	ble.n	8000cb4 <LCD_Init_To+0x198>
 8000cc0:	4a1a      	ldr	r2, [pc, #104]	@ (8000d2c <LCD_Init_To+0x210>)
 8000cc2:	6993      	ldr	r3, [r2, #24]
 8000cc4:	079b      	lsls	r3, r3, #30
 8000cc6:	d4fc      	bmi.n	8000cc2 <LCD_Init_To+0x1a6>
 8000cc8:	6813      	ldr	r3, [r2, #0]
 8000cca:	4918      	ldr	r1, [pc, #96]	@ (8000d2c <LCD_Init_To+0x210>)
 8000ccc:	f443 7380 	orr.w	r3, r3, #256	@ 0x100
 8000cd0:	6013      	str	r3, [r2, #0]
 8000cd2:	694b      	ldr	r3, [r1, #20]
 8000cd4:	07d8      	lsls	r0, r3, #31
 8000cd6:	d5fc      	bpl.n	8000cd2 <LCD_Init_To+0x1b6>
 8000cd8:	4a14      	ldr	r2, [pc, #80]	@ (8000d2c <LCD_Init_To+0x210>)
 8000cda:	610c      	str	r4, [r1, #16]
 8000cdc:	6953      	ldr	r3, [r2, #20]
 8000cde:	0799      	lsls	r1, r3, #30
 8000ce0:	d5fc      	bpl.n	8000cdc <LCD_Init_To+0x1c0>
 8000ce2:	6953      	ldr	r3, [r2, #20]
 8000ce4:	4811      	ldr	r0, [pc, #68]	@ (8000d2c <LCD_Init_To+0x210>)
 8000ce6:	6993      	ldr	r3, [r2, #24]
 8000ce8:	6943      	ldr	r3, [r0, #20]
 8000cea:	061b      	lsls	r3, r3, #24
 8000cec:	d5fc      	bpl.n	8000ce8 <LCD_Init_To+0x1cc>
 8000cee:	2328      	movs	r3, #40	@ 0x28
 8000cf0:	490e      	ldr	r1, [pc, #56]	@ (8000d2c <LCD_Init_To+0x210>)
 8000cf2:	6103      	str	r3, [r0, #16]
 8000cf4:	694b      	ldr	r3, [r1, #20]
 8000cf6:	0758      	lsls	r0, r3, #29
 8000cf8:	d5fc      	bpl.n	8000cf4 <LCD_Init_To+0x1d8>
 8000cfa:	680b      	ldr	r3, [r1, #0]
 8000cfc:	4a0b      	ldr	r2, [pc, #44]	@ (8000d2c <LCD_Init_To+0x210>)
 8000cfe:	f443 7300 	orr.w	r3, r3, #512	@ 0x200
 8000d02:	600b      	str	r3, [r1, #0]
 8000d04:	6993      	ldr	r3, [r2, #24]
 8000d06:	0799      	lsls	r1, r3, #30
 8000d08:	d4fc      	bmi.n	8000d04 <LCD_Init_To+0x1e8>
 8000d0a:	6813      	ldr	r3, [r2, #0]
 8000d0c:	4907      	ldr	r1, [pc, #28]	@ (8000d2c <LCD_Init_To+0x210>)
 8000d0e:	f443 7380 	orr.w	r3, r3, #256	@ 0x100
 8000d12:	6013      	str	r3, [r2, #0]
 8000d14:	694b      	ldr	r3, [r1, #20]
 8000d16:	07da      	lsls	r2, r3, #31
 8000d18:	d5fc      	bpl.n	8000d14 <LCD_Init_To+0x1f8>
 8000d1a:	4a04      	ldr	r2, [pc, #16]	@ (8000d2c <LCD_Init_To+0x210>)
 8000d1c:	610c      	str	r4, [r1, #16]
 8000d1e:	6953      	ldr	r3, [r2, #20]
 8000d20:	079b      	lsls	r3, r3, #30
 8000d22:	d5fc      	bpl.n	8000d1e <LCD_Init_To+0x202>
 8000d24:	6953      	ldr	r3, [r2, #20]
 8000d26:	4901      	ldr	r1, [pc, #4]	@ (8000d2c <LCD_Init_To+0x210>)
 8000d28:	6993      	ldr	r3, [r2, #24]
 8000d2a:	e001      	b.n	8000d30 <LCD_Init_To+0x214>
 8000d2c:	40005400 			@ <UNDEFINED> instruction: 40005400
 8000d30:	694b      	ldr	r3, [r1, #20]
 8000d32:	0618      	lsls	r0, r3, #24
 8000d34:	d5fc      	bpl.n	8000d30 <LCD_Init_To+0x214>
 8000d36:	238c      	movs	r3, #140	@ 0x8c
 8000d38:	4a82      	ldr	r2, [pc, #520]	@ (8000f44 <LCD_Init_To+0x428>)
 8000d3a:	610b      	str	r3, [r1, #16]
 8000d3c:	6953      	ldr	r3, [r2, #20]
 8000d3e:	0759      	lsls	r1, r3, #29
 8000d40:	d5fc      	bpl.n	8000d3c <LCD_Init_To+0x220>
 8000d42:	6813      	ldr	r3, [r2, #0]
 8000d44:	2100      	movs	r1, #0
 8000d46:	f443 7300 	orr.w	r3, r3, #512	@ 0x200
 8000d4a:	6013      	str	r3, [r2, #0]
 8000d4c:	9105      	str	r1, [sp, #20]
 8000d4e:	9b05      	ldr	r3, [sp, #20]
 8000d50:	f241 3287 	movw	r2, #4999	@ 0x1387
 8000d54:	4293      	cmp	r3, r2
 8000d56:	dc05      	bgt.n	8000d64 <LCD_Init_To+0x248>
 8000d58:	9b05      	ldr	r3, [sp, #20]
 8000d5a:	3301      	adds	r3, #1
 8000d5c:	9305      	str	r3, [sp, #20]
 8000d5e:	9b05      	ldr	r3, [sp, #20]
 8000d60:	4293      	cmp	r3, r2
 8000d62:	ddf9      	ble.n	8000d58 <LCD_Init_To+0x23c>
 8000d64:	4a77      	ldr	r2, [pc, #476]	@ (8000f44 <LCD_Init_To+0x428>)
 8000d66:	6993      	ldr	r3, [r2, #24]
 8000d68:	079b      	lsls	r3, r3, #30
 8000d6a:	d4fc      	bmi.n	8000d66 <LCD_Init_To+0x24a>
 8000d6c:	6813      	ldr	r3, [r2, #0]
 8000d6e:	4975      	ldr	r1, [pc, #468]	@ (8000f44 <LCD_Init_To+0x428>)
 8000d70:	f443 7380 	orr.w	r3, r3, #256	@ 0x100
 8000d74:	6013      	str	r3, [r2, #0]
 8000d76:	694b      	ldr	r3, [r1, #20]
 8000d78:	07d8      	lsls	r0, r3, #31
 8000d7a:	d5fc      	bpl.n	8000d76 <LCD_Init_To+0x25a>
 8000d7c:	4a71      	ldr	r2, [pc, #452]	@ (8000f44 <LCD_Init_To+0x428>)
 8000d7e:	610c      	str	r4, [r1, #16]
 8000d80:	6953      	ldr	r3, [r2, #20]
 8000d82:	0799      	lsls	r1, r3, #30
 8000d84:	d5fc      	bpl.n	8000d80 <LCD_Init_To+0x264>
 8000d86:	6953      	ldr	r3, [r2, #20]
 8000d88:	486e      	ldr	r0, [pc, #440]	@ (8000f44 <LCD_Init_To+0x428>)
 8000d8a:	6993      	ldr	r3, [r2, #24]
 8000d8c:	6943      	ldr	r3, [r0, #20]
 8000d8e:	061b      	lsls	r3, r3, #24
 8000d90:	d5fc      	bpl.n	8000d8c <LCD_Init_To+0x270>
 8000d92:	2388      	movs	r3, #136	@ 0x88
 8000d94:	496b      	ldr	r1, [pc, #428]	@ (8000f44 <LCD_Init_To+0x428>)
 8000d96:	6103      	str	r3, [r0, #16]
 8000d98:	694b      	ldr	r3, [r1, #20]
 8000d9a:	0758      	lsls	r0, r3, #29
 8000d9c:	d5fc      	bpl.n	8000d98 <LCD_Init_To+0x27c>
 8000d9e:	680b      	ldr	r3, [r1, #0]
 8000da0:	4a68      	ldr	r2, [pc, #416]	@ (8000f44 <LCD_Init_To+0x428>)
 8000da2:	f443 7300 	orr.w	r3, r3, #512	@ 0x200
 8000da6:	600b      	str	r3, [r1, #0]
 8000da8:	6993      	ldr	r3, [r2, #24]
 8000daa:	0799      	lsls	r1, r3, #30
 8000dac:	d4fc      	bmi.n	8000da8 <LCD_Init_To+0x28c>
 8000dae:	6813      	ldr	r3, [r2, #0]
 8000db0:	4964      	ldr	r1, [pc, #400]	@ (8000f44 <LCD_Init_To+0x428>)
 8000db2:	f443 7380 	orr.w	r3, r3, #256	@ 0x100
 8000db6:	6013      	str	r3, [r2, #0]
 8000db8:	694b      	ldr	r3, [r1, #20]
 8000dba:	07da      	lsls	r2, r3, #31
 8000dbc:	d5fc      	bpl.n	8000db8 <LCD_Init_To+0x29c>
 8000dbe:	4a61      	ldr	r2, [pc, #388]	@ (8000f44 <LCD_Init_To+0x428>)
 8000dc0:	610c      	str	r4, [r1, #16]
 8000dc2:	6953      	ldr	r3, [r2, #20]
 8000dc4:	079b      	lsls	r3, r3, #30
 8000dc6:	d5fc      	bpl.n	8000dc2 <LCD_Init_To+0x2a6>
 8000dc8:	6953      	ldr	r3, [r2, #20]
 8000dca:	495e      	ldr	r1, [pc, #376]	@ (8000f44 <LCD_Init_To+0x428>)
 8000dcc:	6993      	ldr	r3, [r2, #24]
 8000dce:	694b      	ldr	r3, [r1, #20]
 8000dd0:	0618      	lsls	r0, r3, #24
 8000dd2:	d5fc      	bpl.n	8000dce <LCD_Init_To+0x2b2>
 8000dd4:	230c      	movs	r3, #12
 8000dd6:	4a5b      	ldr	r2, [pc, #364]	@ (8000f44 <LCD_Init_To+0x428>)
 8000dd8:	610b      	str	r3, [r1, #16]
 8000dda:	6953      	ldr	r3, [r2, #20]
 8000ddc:	0759      	lsls	r1, r3, #29
 8000dde:	d5fc      	bpl.n	8000dda <LCD_Init_To+0x2be>
 8000de0:	6813      	ldr	r3, [r2, #0]
 8000de2:	2100      	movs	r1, #0
 8000de4:	f443 7300 	orr.w	r3, r3, #512	@ 0x200
 8000de8:	6013      	str	r3, [r2, #0]
 8000dea:	9102      	str	r1, [sp, #8]
 8000dec:	9b02      	ldr	r3, [sp, #8]
 8000dee:	f241 3287 	movw	r2, #4999	@ 0x1387
 8000df2:	4293      	cmp	r3, r2
 8000df4:	dc05      	bgt.n	8000e02 <LCD_Init_To+0x2e6>
 8000df6:	9b02      	ldr	r3, [sp, #8]
 8000df8:	3301      	adds	r3, #1
 8000dfa:	9302      	str	r3, [sp, #8]
 8000dfc:	9b02      	ldr	r3, [sp, #8]
 8000dfe:	4293      	cmp	r3, r2
 8000e00:	ddf9      	ble.n	8000df6 <LCD_Init_To+0x2da>
 8000e02:	4a50      	ldr	r2, [pc, #320]	@ (8000f44 <LCD_Init_To+0x428>)
 8000e04:	6993      	ldr	r3, [r2, #24]
 8000e06:	079b      	lsls	r3, r3, #30
 8000e08:	d4fc      	bmi.n	8000e04 <LCD_Init_To+0x2e8>
 8000e0a:	6813      	ldr	r3, [r2, #0]
 8000e0c:	494d      	ldr	r1, [pc, #308]	@ (8000f44 <LCD_Init_To+0x428>)
 8000e0e:	f443 7380 	orr.w	r3, r3, #256	@ 0x100
 8000e12:	6013      	str	r3, [r2, #0]
 8000e14:	694b      	ldr	r3, [r1, #20]
 8000e16:	07d8      	lsls	r0, r3, #31
 8000e18:	d5fc      	bpl.n	8000e14 <LCD_Init_To+0x2f8>
 8000e1a:	4a4a      	ldr	r2, [pc, #296]	@ (8000f44 <LCD_Init_To+0x428>)
 8000e1c:	610c      	str	r4, [r1, #16]
 8000e1e:	6953      	ldr	r3, [r2, #20]
 8000e20:	0799      	lsls	r1, r3, #30
 8000e22:	d5fc      	bpl.n	8000e1e <LCD_Init_To+0x302>
 8000e24:	6953      	ldr	r3, [r2, #20]
 8000e26:	4847      	ldr	r0, [pc, #284]	@ (8000f44 <LCD_Init_To+0x428>)
 8000e28:	6993      	ldr	r3, [r2, #24]
 8000e2a:	6943      	ldr	r3, [r0, #20]
 8000e2c:	061b      	lsls	r3, r3, #24
 8000e2e:	d5fc      	bpl.n	8000e2a <LCD_Init_To+0x30e>
 8000e30:	2308      	movs	r3, #8
 8000e32:	4944      	ldr	r1, [pc, #272]	@ (8000f44 <LCD_Init_To+0x428>)
 8000e34:	6103      	str	r3, [r0, #16]
 8000e36:	694b      	ldr	r3, [r1, #20]
 8000e38:	0758      	lsls	r0, r3, #29
 8000e3a:	d5fc      	bpl.n	8000e36 <LCD_Init_To+0x31a>
 8000e3c:	680b      	ldr	r3, [r1, #0]
 8000e3e:	4a41      	ldr	r2, [pc, #260]	@ (8000f44 <LCD_Init_To+0x428>)
 8000e40:	f443 7300 	orr.w	r3, r3, #512	@ 0x200
 8000e44:	600b      	str	r3, [r1, #0]
 8000e46:	6993      	ldr	r3, [r2, #24]
 8000e48:	0799      	lsls	r1, r3, #30
 8000e4a:	d4fc      	bmi.n	8000e46 <LCD_Init_To+0x32a>
 8000e4c:	6813      	ldr	r3, [r2, #0]
 8000e4e:	493d      	ldr	r1, [pc, #244]	@ (8000f44 <LCD_Init_To+0x428>)
 8000e50:	f443 7380 	orr.w	r3, r3, #256	@ 0x100
 8000e54:	6013      	str	r3, [r2, #0]
 8000e56:	694b      	ldr	r3, [r1, #20]
 8000e58:	07da      	lsls	r2, r3, #31
 8000e5a:	d5fc      	bpl.n	8000e56 <LCD_Init_To+0x33a>
 8000e5c:	4a39      	ldr	r2, [pc, #228]	@ (8000f44 <LCD_Init_To+0x428>)
 8000e5e:	610c      	str	r4, [r1, #16]
 8000e60:	6953      	ldr	r3, [r2, #20]
 8000e62:	079b      	lsls	r3, r3, #30
 8000e64:	d5fc      	bpl.n	8000e60 <LCD_Init_To+0x344>
 8000e66:	6953      	ldr	r3, [r2, #20]
 8000e68:	4936      	ldr	r1, [pc, #216]	@ (8000f44 <LCD_Init_To+0x428>)
 8000e6a:	6993      	ldr	r3, [r2, #24]
 8000e6c:	694b      	ldr	r3, [r1, #20]
 8000e6e:	0618      	lsls	r0, r3, #24
 8000e70:	d5fc      	bpl.n	8000e6c <LCD_Init_To+0x350>
 8000e72:	23cc      	movs	r3, #204	@ 0xcc
 8000e74:	4a33      	ldr	r2, [pc, #204]	@ (8000f44 <LCD_Init_To+0x428>)
 8000e76:	610b      	str	r3, [r1, #16]
 8000e78:	6953      	ldr	r3, [r2, #20]
 8000e7a:	0759      	lsls	r1, r3, #29
 8000e7c:	d5fc      	bpl.n	8000e78 <LCD_Init_To+0x35c>
 8000e7e:	6813      	ldr	r3, [r2, #0]
 8000e80:	2100      	movs	r1, #0
 8000e82:	f443 7300 	orr.w	r3, r3, #512	@ 0x200
 8000e86:	6013      	str	r3, [r2, #0]
 8000e88:	9103      	str	r1, [sp, #12]
 8000e8a:	9b03      	ldr	r3, [sp, #12]
 8000e8c:	f241 3287 	movw	r2, #4999	@ 0x1387
 8000e90:	4293      	cmp	r3, r2
 8000e92:	dc05      	bgt.n	8000ea0 <LCD_Init_To+0x384>
 8000e94:	9b03      	ldr	r3, [sp, #12]
 8000e96:	3301      	adds	r3, #1
 8000e98:	9303      	str	r3, [sp, #12]
 8000e9a:	9b03      	ldr	r3, [sp, #12]
 8000e9c:	4293      	cmp	r3, r2
 8000e9e:	ddf9      	ble.n	8000e94 <LCD_Init_To+0x378>
 8000ea0:	4a28      	ldr	r2, [pc, #160]	@ (8000f44 <LCD_Init_To+0x428>)
 8000ea2:	6993      	ldr	r3, [r2, #24]
 8000ea4:	079b      	lsls	r3, r3, #30
 8000ea6:	d4fc      	bmi.n	8000ea2 <LCD_Init_To+0x386>
 8000ea8:	6813      	ldr	r3, [r2, #0]
 8000eaa:	4926      	ldr	r1, [pc, #152]	@ (8000f44 <LCD_Init_To+0x428>)
 8000eac:	f443 7380 	orr.w	r3, r3, #256	@ 0x100
 8000eb0:	6013      	str	r3, [r2, #0]
 8000eb2:	694b      	ldr	r3, [r1, #20]
 8000eb4:	07d8      	lsls	r0, r3, #31
 8000eb6:	d5fc      	bpl.n	8000eb2 <LCD_Init_To+0x396>
 8000eb8:	4a22      	ldr	r2, [pc, #136]	@ (8000f44 <LCD_Init_To+0x428>)
 8000eba:	610c      	str	r4, [r1, #16]
 8000ebc:	6953      	ldr	r3, [r2, #20]
 8000ebe:	0799      	lsls	r1, r3, #30
 8000ec0:	d5fc      	bpl.n	8000ebc <LCD_Init_To+0x3a0>
 8000ec2:	6953      	ldr	r3, [r2, #20]
 8000ec4:	481f      	ldr	r0, [pc, #124]	@ (8000f44 <LCD_Init_To+0x428>)
 8000ec6:	6993      	ldr	r3, [r2, #24]
 8000ec8:	6943      	ldr	r3, [r0, #20]
 8000eca:	061b      	lsls	r3, r3, #24
 8000ecc:	d5fc      	bpl.n	8000ec8 <LCD_Init_To+0x3ac>
 8000ece:	23c8      	movs	r3, #200	@ 0xc8
 8000ed0:	491c      	ldr	r1, [pc, #112]	@ (8000f44 <LCD_Init_To+0x428>)
 8000ed2:	6103      	str	r3, [r0, #16]
 8000ed4:	694b      	ldr	r3, [r1, #20]
 8000ed6:	0758      	lsls	r0, r3, #29
 8000ed8:	d5fc      	bpl.n	8000ed4 <LCD_Init_To+0x3b8>
 8000eda:	680b      	ldr	r3, [r1, #0]
 8000edc:	4a19      	ldr	r2, [pc, #100]	@ (8000f44 <LCD_Init_To+0x428>)
 8000ede:	f443 7300 	orr.w	r3, r3, #512	@ 0x200
 8000ee2:	600b      	str	r3, [r1, #0]
 8000ee4:	6993      	ldr	r3, [r2, #24]
 8000ee6:	0799      	lsls	r1, r3, #30
 8000ee8:	d4fc      	bmi.n	8000ee4 <LCD_Init_To+0x3c8>
 8000eea:	6813      	ldr	r3, [r2, #0]
 8000eec:	4915      	ldr	r1, [pc, #84]	@ (8000f44 <LCD_Init_To+0x428>)
 8000eee:	f443 7380 	orr.w	r3, r3, #256	@ 0x100
 8000ef2:	6013      	str	r3, [r2, #0]
 8000ef4:	694b      	ldr	r3, [r1, #20]
 8000ef6:	07da      	lsls	r2, r3, #31
 8000ef8:	d5fc      	bpl.n	8000ef4 <LCD_Init_To+0x3d8>
 8000efa:	4a12      	ldr	r2, [pc, #72]	@ (8000f44 <LCD_Init_To+0x428>)
 8000efc:	610c      	str	r4, [r1, #16]
 8000efe:	6953      	ldr	r3, [r2, #20]
 8000f00:	079b      	lsls	r3, r3, #30
 8000f02:	d5fc      	bpl.n	8000efe <LCD_Init_To+0x3e2>
 8000f04:	6953      	ldr	r3, [r2, #20]
 8000f06:	490f      	ldr	r1, [pc, #60]	@ (8000f44 <LCD_Init_To+0x428>)
 8000f08:	6993      	ldr	r3, [r2, #24]
 8000f0a:	694b      	ldr	r3, [r1, #20]
 8000f0c:	0618      	lsls	r0, r3, #24
 8000f0e:	d5fc      	bpl.n	8000f0a <LCD_Init_To+0x3ee>
 8000f10:	230c      	movs	r3, #12
 8000f12:	4a0c      	ldr	r2, [pc, #48]	@ (8000f44 <LCD_Init_To+0x428>)
 8000f14:	610b      	str	r3, [r1, #16]
 8000f16:	6953      	ldr	r3, [r2, #20]
 8000f18:	0759      	lsls	r1, r3, #29
 8000f1a:	d5fc      	bpl.n	8000f16 <LCD_Init_To+0x3fa>
 8000f1c:	6813      	ldr	r3, [r2, #0]
 8000f1e:	2100      	movs	r1, #0
 8000f20:	f443 7300 	orr.w	r3, r3, #512	@ 0x200
 8000f24:	6013      	str	r3, [r2, #0]
 8000f26:	9100      	str	r1, [sp, #0]
 8000f28:	9b00      	ldr	r3, [sp, #0]
 8000f2a:	f241 3287 	movw	r2, #4999	@ 0x1387
 8000f2e:	4293      	cmp	r3, r2
 8000f30:	dc05      	bgt.n	8000f3e <LCD_Init_To+0x422>
 8000f32:	9b00      	ldr	r3, [sp, #0]
 8000f34:	3301      	adds	r3, #1
 8000f36:	9300      	str	r3, [sp, #0]
 8000f38:	9b00      	ldr	r3, [sp, #0]
 8000f3a:	4293      	cmp	r3, r2
 8000f3c:	ddf9      	ble.n	8000f32 <LCD_Init_To+0x416>
 8000f3e:	4a01      	ldr	r2, [pc, #4]	@ (8000f44 <LCD_Init_To+0x428>)
 8000f40:	e002      	b.n	8000f48 <LCD_Init_To+0x42c>
 8000f42:	bf00      	nop
 8000f44:	40005400 			@ <UNDEFINED> instruction: 40005400
 8000f48:	6993      	ldr	r3, [r2, #24]
 8000f4a:	079b      	lsls	r3, r3, #30
 8000f4c:	d4fc      	bmi.n	8000f48 <LCD_Init_To+0x42c>
 8000f4e:	6813      	ldr	r3, [r2, #0]
 8000f50:	493a      	ldr	r1, [pc, #232]	@ (800103c <LCD_Init_To+0x520>)
 8000f52:	f443 7380 	orr.w	r3, r3, #256	@ 0x100
 8000f56:	6013      	str	r3, [r2, #0]
 8000f58:	694b      	ldr	r3, [r1, #20]
 8000f5a:	07d8      	lsls	r0, r3, #31
 8000f5c:	d5fc      	bpl.n	8000f58 <LCD_Init_To+0x43c>
 8000f5e:	4a37      	ldr	r2, [pc, #220]	@ (800103c <LCD_Init_To+0x520>)
 8000f60:	610c      	str	r4, [r1, #16]
 8000f62:	6953      	ldr	r3, [r2, #20]
 8000f64:	0799      	lsls	r1, r3, #30
 8000f66:	d5fc      	bpl.n	8000f62 <LCD_Init_To+0x446>
 8000f68:	6953      	ldr	r3, [r2, #20]
 8000f6a:	4834      	ldr	r0, [pc, #208]	@ (800103c <LCD_Init_To+0x520>)
 8000f6c:	6993      	ldr	r3, [r2, #24]
 8000f6e:	6943      	ldr	r3, [r0, #20]
 8000f70:	061b      	lsls	r3, r3, #24
 8000f72:	d5fc      	bpl.n	8000f6e <LCD_Init_To+0x452>
 8000f74:	2308      	movs	r3, #8
 8000f76:	4931      	ldr	r1, [pc, #196]	@ (800103c <LCD_Init_To+0x520>)
 8000f78:	6103      	str	r3, [r0, #16]
 8000f7a:	694b      	ldr	r3, [r1, #20]
 8000f7c:	0758      	lsls	r0, r3, #29
 8000f7e:	d5fc      	bpl.n	8000f7a <LCD_Init_To+0x45e>
 8000f80:	680b      	ldr	r3, [r1, #0]
 8000f82:	4a2e      	ldr	r2, [pc, #184]	@ (800103c <LCD_Init_To+0x520>)
 8000f84:	f443 7300 	orr.w	r3, r3, #512	@ 0x200
 8000f88:	600b      	str	r3, [r1, #0]
 8000f8a:	6993      	ldr	r3, [r2, #24]
 8000f8c:	0799      	lsls	r1, r3, #30
 8000f8e:	d4fc      	bmi.n	8000f8a <LCD_Init_To+0x46e>
 8000f90:	6813      	ldr	r3, [r2, #0]
 8000f92:	492a      	ldr	r1, [pc, #168]	@ (800103c <LCD_Init_To+0x520>)
 8000f94:	f443 7380 	orr.w	r3, r3, #256	@ 0x100
 8000f98:	6013      	str	r3, [r2, #0]
 8000f9a:	694b      	ldr	r3, [r1, #20]
 8000f9c:	07da      	lsls	r2, r3, #31
 8000f9e:	d5fc      	bpl.n	8000f9a <LCD_Init_To+0x47e>
 8000fa0:	4a26      	ldr	r2, [pc, #152]	@ (800103c <LCD_Init_To+0x520>)
 8000fa2:	610c      	str	r4, [r1, #16]
 8000fa4:	6953      	ldr	r3, [r2, #20]
 8000fa6:	079b      	lsls	r3, r3, #30
 8000fa8:	d5fc      	bpl.n	8000fa4 <LCD_Init_To+0x488>
 8000faa:	6953      	ldr	r3, [r2, #20]
 8000fac:	4923      	ldr	r1, [pc, #140]	@ (800103c <LCD_Init_To+0x520>)
 8000fae:	6993      	ldr	r3, [r2, #24]
 8000fb0:	694b      	ldr	r3, [r1, #20]
 8000fb2:	0618      	lsls	r0, r3, #24
 8000fb4:	d5fc      	bpl.n	8000fb0 <LCD_Init_To+0x494>
 8000fb6:	236c      	movs	r3, #108	@ 0x6c
 8000fb8:	4a20      	ldr	r2, [pc, #128]	@ (800103c <LCD_Init_To+0x520>)
 8000fba:	610b      	str	r3, [r1, #16]
 8000fbc:	6953      	ldr	r3, [r2, #20]
 8000fbe:	0759      	lsls	r1, r3, #29
 8000fc0:	d5fc      	bpl.n	8000fbc <LCD_Init_To+0x4a0>
 8000fc2:	6813      	ldr	r3, [r2, #0]
 8000fc4:	2100      	movs	r1, #0
 8000fc6:	f443 7300 	orr.w	r3, r3, #512	@ 0x200
 8000fca:	6013      	str	r3, [r2, #0]
 8000fcc:	9101      	str	r1, [sp, #4]
 8000fce:	9b01      	ldr	r3, [sp, #4]
 8000fd0:	f241 3287 	movw	r2, #4999	@ 0x1387
 8000fd4:	4293      	cmp	r3, r2
 8000fd6:	dc05      	bgt.n	8000fe4 <LCD_Init_To+0x4c8>
 8000fd8:	9b01      	ldr	r3, [sp, #4]
 8000fda:	3301      	adds	r3, #1
 8000fdc:	9301      	str	r3, [sp, #4]
 8000fde:	9b01      	ldr	r3, [sp, #4]
 8000fe0:	4293      	cmp	r3, r2
 8000fe2:	ddf9      	ble.n	8000fd8 <LCD_Init_To+0x4bc>
 8000fe4:	4a15      	ldr	r2, [pc, #84]	@ (800103c <LCD_Init_To+0x520>)
 8000fe6:	6993      	ldr	r3, [r2, #24]
 8000fe8:	079b      	lsls	r3, r3, #30
 8000fea:	d4fc      	bmi.n	8000fe6 <LCD_Init_To+0x4ca>
 8000fec:	6813      	ldr	r3, [r2, #0]
 8000fee:	4913      	ldr	r1, [pc, #76]	@ (800103c <LCD_Init_To+0x520>)
 8000ff0:	f443 7380 	orr.w	r3, r3, #256	@ 0x100
 8000ff4:	6013      	str	r3, [r2, #0]
 8000ff6:	694b      	ldr	r3, [r1, #20]
 8000ff8:	07d8      	lsls	r0, r3, #31
 8000ffa:	d5fc      	bpl.n	8000ff6 <LCD_Init_To+0x4da>
 8000ffc:	4a0f      	ldr	r2, [pc, #60]	@ (800103c <LCD_Init_To+0x520>)
 8000ffe:	610c      	str	r4, [r1, #16]
 8001000:	6953      	ldr	r3, [r2, #20]
 8001002:	0799      	lsls	r1, r3, #30
 8001004:	d5fc      	bpl.n	8001000 <LCD_Init_To+0x4e4>
 8001006:	6953      	ldr	r3, [r2, #20]
 8001008:	480c      	ldr	r0, [pc, #48]	@ (800103c <LCD_Init_To+0x520>)
 800100a:	6993      	ldr	r3, [r2, #24]
 800100c:	6943      	ldr	r3, [r0, #20]
 800100e:	061a      	lsls	r2, r3, #24
 8001010:	d5fc      	bpl.n	800100c <LCD_Init_To+0x4f0>
 8001012:	2368      	movs	r3, #104	@ 0x68
 8001014:	4909      	ldr	r1, [pc, #36]	@ (800103c <LCD_Init_To+0x520>)
 8001016:	6103      	str	r3, [r0, #16]
 8001018:	694b      	ldr	r3, [r1, #20]
 800101a:	075b      	lsls	r3, r3, #29
 800101c:	d5fc      	bpl.n	8001018 <LCD_Init_To+0x4fc>
 800101e:	680b      	ldr	r3, [r1, #0]
 8001020:	f443 7300 	orr.w	r3, r3, #512	@ 0x200
 8001024:	600b      	str	r3, [r1, #0]
 8001026:	4620      	mov	r0, r4
 8001028:	2200      	movs	r2, #0
 800102a:	2101      	movs	r1, #1
 800102c:	f7ff fca4 	bl	8000978 <LCD_Send_To>
 8001030:	2005      	movs	r0, #5
 8001032:	b008      	add	sp, #32
 8001034:	e8bd 4010 	ldmia.w	sp!, {r4, lr}
 8001038:	f001 b94a 	b.w	80022d0 <TIM2_Delay>
 800103c:	40005400 			@ <UNDEFINED> instruction: 40005400

08001040 <LCD_Init>:
 8001040:	b500      	push	{lr}
 8001042:	b089      	sub	sp, #36	@ 0x24
 8001044:	f7ff fc12 	bl	800086c <I2C1_Init>
 8001048:	2032      	movs	r0, #50	@ 0x32
 800104a:	f001 f941 	bl	80022d0 <TIM2_Delay>
 800104e:	2200      	movs	r2, #0
 8001050:	2102      	movs	r1, #2
 8001052:	204e      	movs	r0, #78	@ 0x4e
 8001054:	f7ff fc90 	bl	8000978 <LCD_Send_To>
 8001058:	4a81      	ldr	r2, [pc, #516]	@ (8001260 <LCD_Init+0x220>)
 800105a:	6993      	ldr	r3, [r2, #24]
 800105c:	0799      	lsls	r1, r3, #30
 800105e:	d4fc      	bmi.n	800105a <LCD_Init+0x1a>
 8001060:	6813      	ldr	r3, [r2, #0]
 8001062:	497f      	ldr	r1, [pc, #508]	@ (8001260 <LCD_Init+0x220>)
 8001064:	f443 7380 	orr.w	r3, r3, #256	@ 0x100
 8001068:	6013      	str	r3, [r2, #0]
 800106a:	694b      	ldr	r3, [r1, #20]
 800106c:	07da      	lsls	r2, r3, #31
 800106e:	d5fc      	bpl.n	800106a <LCD_Init+0x2a>
 8001070:	234e      	movs	r3, #78	@ 0x4e
 8001072:	4a7b      	ldr	r2, [pc, #492]	@ (8001260 <LCD_Init+0x220>)
 8001074:	610b      	str	r3, [r1, #16]
 8001076:	6953      	ldr	r3, [r2, #20]
 8001078:	079b      	lsls	r3, r3, #30
 800107a:	d5fc      	bpl.n	8001076 <LCD_Init+0x36>
 800107c:	6953      	ldr	r3, [r2, #20]
 800107e:	4978      	ldr	r1, [pc, #480]	@ (8001260 <LCD_Init+0x220>)
 8001080:	6993      	ldr	r3, [r2, #24]
 8001082:	694b      	ldr	r3, [r1, #20]
 8001084:	0618      	lsls	r0, r3, #24
 8001086:	d5fc      	bpl.n	8001082 <LCD_Init+0x42>
 8001088:	232c      	movs	r3, #44	@ 0x2c
 800108a:	4a75      	ldr	r2, [pc, #468]	@ (8001260 <LCD_Init+0x220>)
 800108c:	610b      	str	r3, [r1, #16]
 800108e:	6953      	ldr	r3, [r2, #20]
 8001090:	0759      	lsls	r1, r3, #29
 8001092:	d5fc      	bpl.n	800108e <LCD_Init+0x4e>
 8001094:	6813      	ldr	r3, [r2, #0]
 8001096:	2100      	movs	r1, #0
 8001098:	f443 7300 	orr.w	r3, r3, #512	@ 0x200
 800109c:	6013      	str	r3, [r2, #0]
 800109e:	9106      	str	r1, [sp, #24]
 80010a0:	9b06      	ldr	r3, [sp, #24]
 80010a2:	f241 3287 	movw	r2, #4999	@ 0x1387
 80010a6:	4293      	cmp	r3, r2
 80010a8:	dc05      	bgt.n	80010b6 <LCD_Init+0x76>
 80010aa:	9b06      	ldr	r3, [sp, #24]
 80010ac:	3301      	adds	r3, #1
 80010ae:	9306      	str	r3, [sp, #24]
 80010b0:	9b06      	ldr	r3, [sp, #24]
 80010b2:	4293      	cmp	r3, r2
 80010b4:	ddf9      	ble.n	80010aa <LCD_Init+0x6a>
 80010b6:	4a6a      	ldr	r2, [pc, #424]	@ (8001260 <LCD_Init+0x220>)
 80010b8:	6993      	ldr	r3, [r2, #24]
 80010ba:	079b      	lsls	r3, r3, #30
 80010bc:	d4fc      	bmi.n	80010b8 <LCD_Init+0x78>
 80010be:	6813      	ldr	r3, [r2, #0]
 80010c0:	4967      	ldr	r1, [pc, #412]	@ (8001260 <LCD_Init+0x220>)
 80010c2:	f443 7380 	orr.w	r3, r3, #256	@ 0x100
 80010c6:	6013      	str	r3, [r2, #0]
 80010c8:	694b      	ldr	r3, [r1, #20]
 80010ca:	07d8      	lsls	r0, r3, #31
 80010cc:	d5fc      	bpl.n	80010c8 <LCD_Init+0x88>
 80010ce:	234e      	movs	r3, #78	@ 0x4e
 80010d0:	4a63      	ldr	r2, [pc, #396]	@ (8001260 <LCD_Init+0x220>)
 80010d2:	610b      	str	r3, [r1, #16]
 80010d4:	6953      	ldr	r3, [r2, #20]
 80010d6:	0799      	lsls	r1, r3, #30
 80010d8:	d5fc      	bpl.n	80010d4 <LCD_Init+0x94>
 80010da:	6953      	ldr	r3, [r2, #20]
 80010dc:	4860      	ldr	r0, [pc, #384]	@ (8001260 <LCD_Init+0x220>)
 80010de:	6993      	ldr	r3, [r2, #24]
 80010e0:	6943      	ldr	r3, [r0, #20]
 80010e2:	061b      	lsls	r3, r3, #24
 80010e4:	d5fc      	bpl.n	80010e0 <LCD_Init+0xa0>
 80010e6:	2328      	movs	r3, #40	@ 0x28
 80010e8:	495d      	ldr	r1, [pc, #372]	@ (8001260 <LCD_Init+0x220>)
 80010ea:	6103      	str	r3, [r0, #16]
 80010ec:	694b      	ldr	r3, [r1, #20]
 80010ee:	0758      	lsls	r0, r3, #29
 80010f0:	d5fc      	bpl.n	80010ec <LCD_Init+0xac>
 80010f2:	680b      	ldr	r3, [r1, #0]
 80010f4:	4a5a      	ldr	r2, [pc, #360]	@ (8001260 <LCD_Init+0x220>)
 80010f6:	f443 7300 	orr.w	r3, r3, #512	@ 0x200
 80010fa:	600b      	str	r3, [r1, #0]
 80010fc:	6993      	ldr	r3, [r2, #24]
 80010fe:	0799      	lsls	r1, r3, #30
 8001100:	d4fc      	bmi.n	80010fc <LCD_Init+0xbc>
 8001102:	6813      	ldr	r3, [r2, #0]
 8001104:	4956      	ldr	r1, [pc, #344]	@ (8001260 <LCD_Init+0x220>)
 8001106:	f443 7380 	orr.w	r3, r3, #256	@ 0x100
 800110a:	6013      	str	r3, [r2, #0]
 800110c:	694b      	ldr	r3, [r1, #20]
 800110e:	07da      	lsls	r2, r3, #31
 8001110:	d5fc      	bpl.n	800110c <LCD_Init+0xcc>
 8001112:	234e      	movs	r3, #78	@ 0x4e
 8001114:	4a52      	ldr	r2, [pc, #328]	@ (8001260 <LCD_Init+0x220>)
 8001116:	610b      	str	r3, [r1, #16]
 8001118:	6953      	ldr	r3, [r2, #20]
 800111a:	079b      	lsls	r3, r3, #30
 800111c:	d5fc      	bpl.n	8001118 <LCD_Init+0xd8>
 800111e:	6953      	ldr	r3, [r2, #20]
 8001120:	494f      	ldr	r1, [pc, #316]	@ (8001260 <LCD_Init+0x220>)
 8001122:	6993      	ldr	r3, [r2, #24]
 8001124:	694b      	ldr	r3, [r1, #20]
 8001126:	0618      	lsls	r0, r3, #24
 8001128:	d5fc      	bpl.n	8001124 <LCD_Init+0xe4>
 800112a:	238c      	movs	r3, #140	@ 0x8c
 800112c:	4a4c      	ldr	r2, [pc, #304]	@ (8001260 <LCD_Init+0x220>)
 800112e:	610b      	str	r3, [r1, #16]
 8001130:	6953      	ldr	r3, [r2, #20]
 8001132:	0759      	lsls	r1, r3, #29
 8001134:	d5fc      	bpl.n	8001130 <LCD_Init+0xf0>
 8001136:	6813      	ldr	r3, [r2, #0]
 8001138:	2100      	movs	r1, #0
 800113a:	f443 7300 	orr.w	r3, r3, #512	@ 0x200
 800113e:	6013      	str	r3, [r2, #0]
 8001140:	9107      	str	r1, [sp, #28]
 8001142:	9b07      	ldr	r3, [sp, #28]
 8001144:	f241 3287 	movw	r2, #4999	@ 0x1387
 8001148:	4293      	cmp	r3, r2
 800114a:	dc05      	bgt.n	8001158 <LCD_Init+0x118>
 800114c:	9b07      	ldr	r3, [sp, #28]
 800114e:	3301      	adds	r3, #1
 8001150:	9307      	str	r3, [sp, #28]
 8001152:	9b07      	ldr	r3, [sp, #28]
 8001154:	4293      	cmp	r3, r2
 8001156:	ddf9      	ble.n	800114c <LCD_Init+0x10c>
 8001158:	4a41      	ldr	r2, [pc, #260]	@ (8001260 <LCD_Init+0x220>)
 800115a:	6993      	ldr	r3, [r2, #24]
 800115c:	079b      	lsls	r3, r3, #30
 800115e:	d4fc      	bmi.n	800115a <LCD_Init+0x11a>
 8001160:	6813      	ldr	r3, [r2, #0]
 8001162:	493f      	ldr	r1, [pc, #252]	@ (8001260 <LCD_Init+0x220>)
 8001164:	f443 7380 	orr.w	r3, r3, #256	@ 0x100
 8001168:	6013      	str	r3, [r2, #0]
 800116a:	694b      	ldr	r3, [r1, #20]
 800116c:	07d8      	lsls	r0, r3, #31
 800116e:	d5fc      	bpl.n	800116a <LCD_Init+0x12a>
 8001170:	234e      	movs	r3, #78	@ 0x4e
 8001172:	4a3b      	ldr	r2, [pc, #236]	@ (8001260 <LCD_Init+0x220>)
 8001174:	610b      	str	r3, [r1, #16]
 8001176:	6953      	ldr	r3, [r2, #20]
 8001178:	0799      	lsls	r1, r3, #30
 800117a:	d5fc      	bpl.n	8001176 <LCD_Init+0x136>
 800117c:	6953      	ldr	r3, [r2, #20]
 800117e:	4838      	ldr	r0, [pc, #224]	@ (8001260 <LCD_Init+0x220>)
 8001180:	6993      	ldr	r3, [r2, #24]
 8001182:	6943      	ldr	r3, [r0, #20]
 8001184:	061b      	lsls	r3, r3, #24
 8001186:	d5fc      	bpl.n	8001182 <LCD_Init+0x142>
 8001188:	2388      	movs	r3, #136	@ 0x88
 800118a:	4935      	ldr	r1, [pc, #212]	@ (8001260 <LCD_Init+0x220>)
 800118c:	6103      	str	r3, [r0, #16]
 800118e:	694b      	ldr	r3, [r1, #20]
 8001190:	0758      	lsls	r0, r3, #29
 8001192:	d5fc      	bpl.n	800118e <LCD_Init+0x14e>
 8001194:	680b      	ldr	r3, [r1, #0]
 8001196:	4a32      	ldr	r2, [pc, #200]	@ (8001260 <LCD_Init+0x220>)
 8001198:	f443 7300 	orr.w	r3, r3, #512	@ 0x200
 800119c:	600b      	str	r3, [r1, #0]
 800119e:	6993      	ldr	r3, [r2, #24]
 80011a0:	0799      	lsls	r1, r3, #30
 80011a2:	d4fc      	bmi.n	800119e <LCD_Init+0x15e>
 80011a4:	6813      	ldr	r3, [r2, #0]
 80011a6:	492e      	ldr	r1, [pc, #184]	@ (8001260 <LCD_Init+0x220>)
 80011a8:	f443 7380 	orr.w	r3, r3, #256	@ 0x100
 80011ac:	6013      	str	r3, [r2, #0]
 80011ae:	694b      	ldr	r3, [r1, #20]
 80011b0:	07da      	lsls	r2, r3, #31
 80011b2:	d5fc      	bpl.n	80011ae <LCD_Init+0x16e>
 80011b4:	234e      	movs	r3, #78	@ 0x4e
 80011b6:	4a2a      	ldr	r2, [pc, #168]	@ (8001260 <LCD_Init+0x220>)
 80011b8:	610b      	str	r3, [r1, #16]
 80011ba:	6953      	ldr	r3, [r2, #20]
 80011bc:	079b      	lsls	r3, r3, #30
 80011be:	d5fc      	bpl.n	80011ba <LCD_Init+0x17a>
 80011c0:	6953      	ldr	r3, [r2, #20]
 80011c2:	4927      	ldr	r1, [pc, #156]	@ (8001260 <LCD_Init+0x220>)
 80011c4:	6993      	ldr	r3, [r2, #24]
 80011c6:	694b      	ldr	r3, [r1, #20]
 80011c8:	0618      	lsls	r0, r3, #24
 80011ca:	d5fc      	bpl.n	80011c6 <LCD_Init+0x186>
 80011cc:	230c      	movs	r3, #12
 80011ce:	4a24      	ldr	r2, [pc, #144]	@ (8001260 <LCD_Init+0x220>)
 80011d0:	610b      	str	r3, [r1, #16]
 80011d2:	6953      	ldr	r3, [r2, #20]
 80011d4:	0759      	lsls	r1, r3, #29
 80011d6:	d5fc      	bpl.n	80011d2 <LCD_Init+0x192>
 80011d8:	6813      	ldr	r3, [r2, #0]
 80011da:	2100      	movs	r1, #0
 80011dc:	f443 7300 	orr.w	r3, r3, #512	@ 0x200
 80011e0:	6013      	str	r3, [r2, #0]
 80011e2:	9104      	str	r1, [sp, #16]
 80011e4:	9b04      	ldr	r3, [sp, #16]
 80011e6:	f241 3287 	movw	r2, #4999	@ 0x1387
 80011ea:	4293      	cmp	r3, r2
 80011ec:	dc05      	bgt.n	80011fa <LCD_Init+0x1ba>
 80011ee:	9b04      	ldr	r3, [sp, #16]
 80011f0:	3301      	adds	r3, #1
 80011f2:	9304      	str	r3, [sp, #16]
 80011f4:	9b04      	ldr	r3, [sp, #16]
 80011f6:	4293      	cmp	r3, r2
 80011f8:	ddf9      	ble.n	80011ee <LCD_Init+0x1ae>
 80011fa:	4a19      	ldr	r2, [pc, #100]	@ (8001260 <LCD_Init+0x220>)
 80011fc:	6993      	ldr	r3, [r2, #24]
 80011fe:	079b      	lsls	r3, r3, #30
 8001200:	d4fc      	bmi.n	80011fc <LCD_Init+0x1bc>
 8001202:	6813      	ldr	r3, [r2, #0]
 8001204:	4916      	ldr	r1, [pc, #88]	@ (8001260 <LCD_Init+0x220>)
 8001206:	f443 7380 	orr.w	r3, r3, #256	@ 0x100
 800120a:	6013      	str	r3, [r2, #0]
 800120c:	694b      	ldr	r3, [r1, #20]
 800120e:	07d8      	lsls	r0, r3, #31
 8001210:	d5fc      	bpl.n	800120c <LCD_Init+0x1cc>
 8001212:	234e      	movs	r3, #78	@ 0x4e
 8001214:	4a12      	ldr	r2, [pc, #72]	@ (8001260 <LCD_Init+0x220>)
 8001216:	610b      	str	r3, [r1, #16]
 8001218:	6953      	ldr	r3, [r2, #20]
 800121a:	0799      	lsls	r1, r3, #30
 800121c:	d5fc      	bpl.n	8001218 <LCD_Init+0x1d8>
 800121e:	6953      	ldr	r3, [r2, #20]
 8001220:	480f      	ldr	r0, [pc, #60]	@ (8001260 <LCD_Init+0x220>)
 8001222:	6993      	ldr	r3, [r2, #24]
 8001224:	6943      	ldr	r3, [r0, #20]
 8001226:	061b      	lsls	r3, r3, #24
 8001228:	d5fc      	bpl.n	8001224 <LCD_Init+0x1e4>
 800122a:	2308      	movs	r3, #8
 800122c:	490c      	ldr	r1, [pc, #48]	@ (8001260 <LCD_Init+0x220>)
 800122e:	6103      	str	r3, [r0, #16]
 8001230:	694b      	ldr	r3, [r1, #20]
 8001232:	0758      	lsls	r0, r3, #29
 8001234:	d5fc      	bpl.n	8001230 <LCD_Init+0x1f0>
 8001236:	680b      	ldr	r3, [r1, #0]
 8001238:	4a09      	ldr	r2, [pc, #36]	@ (8001260 <LCD_Init+0x220>)
 800123a:	f443 7300 	orr.w	r3, r3, #512	@ 0x200
 800123e:	600b      	str	r3, [r1, #0]
 8001240:	6993      	ldr	r3, [r2, #24]
 8001242:	0799      	lsls	r1, r3, #30
 8001244:	d4fc      	bmi.n	8001240 <LCD_Init+0x200>
 8001246:	6813      	ldr	r3, [r2, #0]
 8001248:	4905      	ldr	r1, [pc, #20]	@ (8001260 <LCD_Init+0x220>)
 800124a:	f443 7380 	orr.w	r3, r3, #256	@ 0x100
 800124e:	6013      	str	r3, [r2, #0]
 8001250:	694b      	ldr	r3, [r1, #20]
 8001252:	07da      	lsls	r2, r3, #31
 8001254:	d5fc      	bpl.n	8001250 <LCD_Init+0x210>
 8001256:	234e      	movs	r3, #78	@ 0x4e
 8001258:	4a01      	ldr	r2, [pc, #4]	@ (8001260 <LCD_Init+0x220>)
 800125a:	610b      	str	r3, [r1, #16]
 800125c:	e002      	b.n	8001264 <LCD_Init+0x224>
 800125e:	bf00      	nop
 8001260:	40005400 			@ <UNDEFINED> instruction: 40005400
 8001264:	6953      	ldr	r3, [r2, #20]
 8001266:	079b      	lsls	r3, r3, #30
 8001268:	d5fc      	bpl.n	8001264 <LCD_Init+0x224>
 800126a:	6953      	ldr	r3, [r2, #20]
 800126c:	4984      	ldr	r1, [pc, #528]	@ (8001480 <LCD_Init+0x440>)
 800126e:	6993      	ldr	r3, [r2, #24]
 8001270:	694b      	ldr	r3, [r1, #20]
 8001272:	0618      	lsls	r0, r3, #24
 8001274:	d5fc      	bpl.n	8001270 <LCD_Init+0x230>
 8001276:	23cc      	movs	r3, #204	@ 0xcc
 8001278:	4a81      	ldr	r2, [pc, #516]	@ (8001480 <LCD_Init+0x440>)
 800127a:	610b      	str	r3, [r1, #16]
 800127c:	6953      	ldr	r3, [r2, #20]
 800127e:	0759      	lsls	r1, r3, #29
 8001280:	d5fc      	bpl.n	800127c <LCD_Init+0x23c>
 8001282:	6813      	ldr	r3, [r2, #0]
 8001284:	2100      	movs	r1, #0
 8001286:	f443 7300 	orr.w	r3, r3, #512	@ 0x200
 800128a:	6013      	str	r3, [r2, #0]
 800128c:	9105      	str	r1, [sp, #20]
 800128e:	9b05      	ldr	r3, [sp, #20]
 8001290:	f241 3287 	movw	r2, #4999	@ 0x1387
 8001294:	4293      	cmp	r3, r2
 8001296:	dc05      	bgt.n	80012a4 <LCD_Init+0x264>
 8001298:	9b05      	ldr	r3, [sp, #20]
 800129a:	3301      	adds	r3, #1
 800129c:	9305      	str	r3, [sp, #20]
 800129e:	9b05      	ldr	r3, [sp, #20]
 80012a0:	4293      	cmp	r3, r2
 80012a2:	ddf9      	ble.n	8001298 <LCD_Init+0x258>
 80012a4:	4a76      	ldr	r2, [pc, #472]	@ (8001480 <LCD_Init+0x440>)
 80012a6:	6993      	ldr	r3, [r2, #24]
 80012a8:	079b      	lsls	r3, r3, #30
 80012aa:	d4fc      	bmi.n	80012a6 <LCD_Init+0x266>
 80012ac:	6813      	ldr	r3, [r2, #0]
 80012ae:	4974      	ldr	r1, [pc, #464]	@ (8001480 <LCD_Init+0x440>)
 80012b0:	f443 7380 	orr.w	r3, r3, #256	@ 0x100
 80012b4:	6013      	str	r3, [r2, #0]
 80012b6:	694b      	ldr	r3, [r1, #20]
 80012b8:	07d8      	lsls	r0, r3, #31
 80012ba:	d5fc      	bpl.n	80012b6 <LCD_Init+0x276>
 80012bc:	234e      	movs	r3, #78	@ 0x4e
 80012be:	4a70      	ldr	r2, [pc, #448]	@ (8001480 <LCD_Init+0x440>)
 80012c0:	610b      	str	r3, [r1, #16]
 80012c2:	6953      	ldr	r3, [r2, #20]
 80012c4:	0799      	lsls	r1, r3, #30
 80012c6:	d5fc      	bpl.n	80012c2 <LCD_Init+0x282>
 80012c8:	6953      	ldr	r3, [r2, #20]
 80012ca:	486d      	ldr	r0, [pc, #436]	@ (8001480 <LCD_Init+0x440>)
 80012cc:	6993      	ldr	r3, [r2, #24]
 80012ce:	6943      	ldr	r3, [r0, #20]
 80012d0:	061b      	lsls	r3, r3, #24
 80012d2:	d5fc      	bpl.n	80012ce <LCD_Init+0x28e>
 80012d4:	23c8      	movs	r3, #200	@ 0xc8
 80012d6:	496a      	ldr	r1, [pc, #424]	@ (8001480 <LCD_Init+0x440>)
 80012d8:	6103      	str	r3, [r0, #16]
 80012da:	694b      	ldr	r3, [r1, #20]
 80012dc:	0758      	lsls	r0, r3, #29
 80012de:	d5fc      	bpl.n	80012da <LCD_Init+0x29a>
 80012e0:	680b      	ldr	r3, [r1, #0]
 80012e2:	4a67      	ldr	r2, [pc, #412]	@ (8001480 <LCD_Init+0x440>)
 80012e4:	f443 7300 	orr.w	r3, r3, #512	@ 0x200
 80012e8:	600b      	str	r3, [r1, #0]
 80012ea:	6993      	ldr	r3, [r2, #24]
 80012ec:	0799      	lsls	r1, r3, #30
 80012ee:	d4fc      	bmi.n	80012ea <LCD_Init+0x2aa>
 80012f0:	6813      	ldr	r3, [r2, #0]
 80012f2:	4963      	ldr	r1, [pc, #396]	@ (8001480 <LCD_Init+0x440>)
 80012f4:	f443 7380 	orr.w	r3, r3, #256	@ 0x100
 80012f8:	6013      	str	r3, [r2, #0]
 80012fa:	694b      	ldr	r3, [r1, #20]
 80012fc:	07da      	lsls	r2, r3, #31
 80012fe:	d5fc      	bpl.n	80012fa <LCD_Init+0x2ba>
 8001300:	234e      	movs	r3, #78	@ 0x4e
 8001302:	4a5f      	ldr	r2, [pc, #380]	@ (8001480 <LCD_Init+0x440>)
 8001304:	610b      	str	r3, [r1, #16]
 8001306:	6953      	ldr	r3, [r2, #20]
 8001308:	079b      	lsls	r3, r3, #30
 800130a:	d5fc      	bpl.n	8001306 <LCD_Init+0x2c6>
 800130c:	6953      	ldr	r3, [r2, #20]
 800130e:	495c      	ldr	r1, [pc, #368]	@ (8001480 <LCD_Init+0x440>)
 8001310:	6993      	ldr	r3, [r2, #24]
 8001312:	694b      	ldr	r3, [r1, #20]
 8001314:	0618      	lsls	r0, r3, #24
 8001316:	d5fc      	bpl.n	8001312 <LCD_Init+0x2d2>
 8001318:	230c      	movs	r3, #12
 800131a:	4a59      	ldr	r2, [pc, #356]	@ (8001480 <LCD_Init+0x440>)
 800131c:	610b      	str	r3, [r1, #16]
 800131e:	6953      	ldr	r3, [r2, #20]
 8001320:	0759      	lsls	r1, r3, #29
 8001322:	d5fc      	bpl.n	800131e <LCD_Init+0x2de>
 8001324:	6813      	ldr	r3, [r2, #0]
 8001326:	2100      	movs	r1, #0
 8001328:	f443 7300 	orr.w	r3, r3, #512	@ 0x200
 800132c:	6013      	str	r3, [r2, #0]
 800132e:	9102      	str	r1, [sp, #8]
 8001330:	9b02      	ldr	r3, [sp, #8]
 8001332:	f241 3287 	movw	r2, #4999	@ 0x1387
 8001336:	4293      	cmp	r3, r2
 8001338:	dc05      	bgt.n	8001346 <LCD_Init+0x306>
 800133a:	9b02      	ldr	r3, [sp, #8]
 800133c:	3301      	adds	r3, #1
 800133e:	9302      	str	r3, [sp, #8]
 8001340:	9b02      	ldr	r3, [sp, #8]
 8001342:	4293      	cmp	r3, r2
 8001344:	ddf9      	ble.n	800133a <LCD_Init+0x2fa>
 8001346:	4a4e      	ldr	r2, [pc, #312]	@ (8001480 <LCD_Init+0x440>)
 8001348:	6993      	ldr	r3, [r2, #24]
 800134a:	079b      	lsls	r3, r3, #30
 800134c:	d4fc      	bmi.n	8001348 <LCD_Init+0x308>
 800134e:	6813      	ldr	r3, [r2, #0]
 8001350:	494b      	ldr	r1, [pc, #300]	@ (8001480 <LCD_Init+0x440>)
 8001352:	f443 7380 	orr.w	r3, r3, #256	@ 0x100
 8001356:	6013      	str	r3, [r2, #0]
 8001358:	694b      	ldr	r3, [r1, #20]
 800135a:	07d8      	lsls	r0, r3, #31
 800135c:	d5fc      	bpl.n	8001358 <LCD_Init+0x318>
 800135e:	234e      	movs	r3, #78	@ 0x4e
 8001360:	4a47      	ldr	r2, [pc, #284]	@ (8001480 <LCD_Init+0x440>)
 8001362:	610b      	str	r3, [r1, #16]
 8001364:	6953      	ldr	r3, [r2, #20]
 8001366:	0799      	lsls	r1, r3, #30
 8001368:	d5fc      	bpl.n	8001364 <LCD_Init+0x324>
 800136a:	6953      	ldr	r3, [r2, #20]
 800136c:	4844      	ldr	r0, [pc, #272]	@ (8001480 <LCD_Init+0x440>)
 800136e:	6993      	ldr	r3, [r2, #24]
 8001370:	6943      	ldr	r3, [r0, #20]
 8001372:	061b      	lsls	r3, r3, #24
 8001374:	d5fc      	bpl.n	8001370 <LCD_Init+0x330>
 8001376:	2308      	movs	r3, #8
 8001378:	4941      	ldr	r1, [pc, #260]	@ (8001480 <LCD_Init+0x440>)
 800137a:	6103      	str	r3, [r0, #16]
 800137c:	694b      	ldr	r3, [r1, #20]
 800137e:	0758      	lsls	r0, r3, #29
 8001380:	d5fc      	bpl.n	800137c <LCD_Init+0x33c>
 8001382:	680b      	ldr	r3, [r1, #0]
 8001384:	4a3e      	ldr	r2, [pc, #248]	@ (8001480 <LCD_Init+0x440>)
 8001386:	f443 7300 	orr.w	r3, r3, #512	@ 0x200
 800138a:	600b      	str	r3, [r1, #0]
 800138c:	6993      	ldr	r3, [r2, #24]
 800138e:	0799      	lsls	r1, r3, #30
 8001390:	d4fc      	bmi.n	800138c <LCD_Init+0x34c>
 8001392:	6813      	ldr	r3, [r2, #0]
 8001394:	493a      	ldr	r1, [pc, #232]	@ (8001480 <LCD_Init+0x440>)
 8001396:	f443 7380 	orr.w	r3, r3, #256	@ 0x100
 800139a:	6013      	str	r3, [r2, #0]
 800139c:	694b      	ldr	r3, [r1, #20]
 800139e:	07da      	lsls	r2, r3, #31
 80013a0:	d5fc      	bpl.n	800139c <LCD_Init+0x35c>
 80013a2:	234e      	movs	r3, #78	@ 0x4e
 80013a4:	4a36      	ldr	r2, [pc, #216]	@ (8001480 <LCD_Init+0x440>)
 80013a6:	610b      	str	r3, [r1, #16]
 80013a8:	6953      	ldr	r3, [r2, #20]
 80013aa:	079b      	lsls	r3, r3, #30
 80013ac:	d5fc      	bpl.n	80013a8 <LCD_Init+0x368>
 80013ae:	6953      	ldr	r3, [r2, #20]
 80013b0:	4933      	ldr	r1, [pc, #204]	@ (8001480 <LCD_Init+0x440>)
 80013b2:	6993      	ldr	r3, [r2, #24]
 80013b4:	694b      	ldr	r3, [r1, #20]
 80013b6:	0618      	lsls	r0, r3, #24
 80013b8:	d5fc      	bpl.n	80013b4 <LCD_Init+0x374>
 80013ba:	236c      	movs	r3, #108	@ 0x6c
 80013bc:	4a30      	ldr	r2, [pc, #192]	@ (8001480 <LCD_Init+0x440>)
 80013be:	610b      	str	r3, [r1, #16]
 80013c0:	6953      	ldr	r3, [r2, #20]
 80013c2:	0759      	lsls	r1, r3, #29
 80013c4:	d5fc      	bpl.n	80013c0 <LCD_Init+0x380>
 80013c6:	6813      	ldr	r3, [r2, #0]
 80013c8:	2100      	movs	r1, #0
 80013ca:	f443 7300 	orr.w	r3, r3, #512	@ 0x200
 80013ce:	6013      	str	r3, [r2, #0]
 80013d0:	9103      	str	r1, [sp, #12]
 80013d2:	9b03      	ldr	r3, [sp, #12]
 80013d4:	f241 3287 	movw	r2, #4999	@ 0x1387
 80013d8:	4293      	cmp	r3, r2
 80013da:	dc05      	bgt.n	80013e8 <LCD_Init+0x3a8>
 80013dc:	9b03      	ldr	r3, [sp, #12]
 80013de:	3301      	adds	r3, #1
 80013e0:	9303      	str	r3, [sp, #12]
 80013e2:	9b03      	ldr	r3, [sp, #12]
 80013e4:	4293      	cmp	r3, r2
 80013e6:	ddf9      	ble.n	80013dc <LCD_Init+0x39c>
 80013e8:	4a25      	ldr	r2, [pc, #148]	@ (8001480 <LCD_Init+0x440>)
 80013ea:	6993      	ldr	r3, [r2, #24]
 80013ec:	079b      	lsls	r3, r3, #30
 80013ee:	d4fc      	bmi.n	80013ea <LCD_Init+0x3aa>
 80013f0:	6813      	ldr	r3, [r2, #0]
 80013f2:	4923      	ldr	r1, [pc, #140]	@ (8001480 <LCD_Init+0x440>)
 80013f4:	f443 7380 	orr.w	r3, r3, #256	@ 0x100
 80013f8:	6013      	str	r3, [r2, #0]
 80013fa:	694b      	ldr	r3, [r1, #20]
 80013fc:	07d8      	lsls	r0, r3, #31
 80013fe:	d5fc      	bpl.n	80013fa <LCD_Init+0x3ba>
 8001400:	234e      	movs	r3, #78	@ 0x4e
 8001402:	4a1f      	ldr	r2, [pc, #124]	@ (8001480 <LCD_Init+0x440>)
 8001404:	610b      	str	r3, [r1, #16]
 8001406:	6953      	ldr	r3, [r2, #20]
 8001408:	0799      	lsls	r1, r3, #30
 800140a:	d5fc      	bpl.n	8001406 <LCD_Init+0x3c6>
 800140c:	6953      	ldr	r3, [r2, #20]
 800140e:	481c      	ldr	r0, [pc, #112]	@ (8001480 <LCD_Init+0x440>)
 8001410:	6993      	ldr	r3, [r2, #24]
 8001412:	6943      	ldr	r3, [r0, #20]
 8001414:	061b      	lsls	r3, r3, #24
 8001416:	d5fc      	bpl.n	8001412 <LCD_Init+0x3d2>
 8001418:	2368      	movs	r3, #104	@ 0x68
 800141a:	4919      	ldr	r1, [pc, #100]	@ (8001480 <LCD_Init+0x440>)
 800141c:	6103      	str	r3, [r0, #16]
 800141e:	694b      	ldr	r3, [r1, #20]
 8001420:	0758      	lsls	r0, r3, #29
 8001422:	d5fc      	bpl.n	800141e <LCD_Init+0x3de>
 8001424:	680b      	ldr	r3, [r1, #0]
 8001426:	4a16      	ldr	r2, [pc, #88]	@ (8001480 <LCD_Init+0x440>)
 8001428:	f443 7300 	orr.w	r3, r3, #512	@ 0x200
 800142c:	600b      	str	r3, [r1, #0]
 800142e:	6993      	ldr	r3, [r2, #24]
 8001430:	0799      	lsls	r1, r3, #30
 8001432:	d4fc      	bmi.n	800142e <LCD_Init+0x3ee>
 8001434:	6813      	ldr	r3, [r2, #0]
 8001436:	4912      	ldr	r1, [pc, #72]	@ (8001480 <LCD_Init+0x440>)
 8001438:	f443 7380 	orr.w	r3, r3, #256	@ 0x100
 800143c:	6013      	str	r3, [r2, #0]
 800143e:	694b      	ldr	r3, [r1, #20]
 8001440:	07da      	lsls	r2, r3, #31
 8001442:	d5fc      	bpl.n	800143e <LCD_Init+0x3fe>
 8001444:	234e      	movs	r3, #78	@ 0x4e
 8001446:	4a0e      	ldr	r2, [pc, #56]	@ (8001480 <LCD_Init+0x440>)
 8001448:	610b      	str	r3, [r1, #16]
 800144a:	6953      	ldr	r3, [r2, #20]
 800144c:	079b      	lsls	r3, r3, #30
 800144e:	d5fc      	bpl.n	800144a <LCD_Init+0x40a>
 8001450:	6953      	ldr	r3, [r2, #20]
 8001452:	490b      	ldr	r1, [pc, #44]	@ (8001480 <LCD_Init+0x440>)
 8001454:	6993      	ldr	r3, [r2, #24]
 8001456:	694b      	ldr	r3, [r1, #20]
 8001458:	0618      	lsls	r0, r3, #24
 800145a:	d5fc      	bpl.n	8001456 <LCD_Init+0x416>
 800145c:	230c      	movs	r3, #12
 800145e:	4a08      	ldr	r2, [pc, #32]	@ (8001480 <LCD_Init+0x440>)
 8001460:	610b      	str	r3, [r1, #16]
 8001462:	6953      	ldr	r3, [r2, #20]
 8001464:	0759      	lsls	r1, r3, #29
 8001466:	d5fc      	bpl.n	8001462 <LCD_Init+0x422>
 8001468:	6813      	ldr	r3, [r2, #0]
 800146a:	2100      	movs	r1, #0
 800146c:	f443 7300 	orr.w	r3, r3, #512	@ 0x200
 8001470:	6013      	str	r3, [r2, #0]
 8001472:	9100      	str	r1, [sp, #0]
 8001474:	9b00      	ldr	r3, [sp, #0]
 8001476:	f241 3287 	movw	r2, #4999	@ 0x1387
 800147a:	4293      	cmp	r3, r2
 800147c:	dc08      	bgt.n	8001490 <LCD_Init+0x450>
 800147e:	e001      	b.n	8001484 <LCD_Init+0x444>
 8001480:	40005400 			@ <UNDEFINED> instruction: 40005400
 8001484:	9b00      	ldr	r3, [sp, #0]
 8001486:	3301      	adds	r3, #1
 8001488:	9300      	str	r3, [sp, #0]
 800148a:	9b00      	ldr	r3, [sp, #0]
 800148c:	4293      	cmp	r3, r2
 800148e:	ddf9      	ble.n	8001484 <LCD_Init+0x444>
 8001490:	4a3c      	ldr	r2, [pc, #240]	@ (8001584 <LCD_Init+0x544>)
 8001492:	6993      	ldr	r3, [r2, #24]
 8001494:	079b      	lsls	r3, r3, #30
 8001496:	d4fc      	bmi.n	8001492 <LCD_Init+0x452>
 8001498:	6813      	ldr	r3, [r2, #0]
 800149a:	493a      	ldr	r1, [pc, #232]	@ (8001584 <LCD_Init+0x544>)
 800149c:	f443 7380 	orr.w	r3, r3, #256	@ 0x100
 80014a0:	6013      	str	r3, [r2, #0]
 80014a2:	694b      	ldr	r3, [r1, #20]
 80014a4:	07d8      	lsls	r0, r3, #31
 80014a6:	d5fc      	bpl.n	80014a2 <LCD_Init+0x462>
 80014a8:	234e      	movs	r3, #78	@ 0x4e
 80014aa:	4a36      	ldr	r2, [pc, #216]	@ (8001584 <LCD_Init+0x544>)
 80014ac:	610b      	str	r3, [r1, #16]
 80014ae:	6953      	ldr	r3, [r2, #20]
 80014b0:	0799      	lsls	r1, r3, #30
 80014b2:	d5fc      	bpl.n	80014ae <LCD_Init+0x46e>
 80014b4:	6953      	ldr	r3, [r2, #20]
 80014b6:	4833      	ldr	r0, [pc, #204]	@ (8001584 <LCD_Init+0x544>)
 80014b8:	6993      	ldr	r3, [r2, #24]
 80014ba:	6943      	ldr	r3, [r0, #20]
 80014bc:	061b      	lsls	r3, r3, #24
 80014be:	d5fc      	bpl.n	80014ba <LCD_Init+0x47a>
 80014c0:	2308      	movs	r3, #8
 80014c2:	4930      	ldr	r1, [pc, #192]	@ (8001584 <LCD_Init+0x544>)
 80014c4:	6103      	str	r3, [r0, #16]
 80014c6:	694b      	ldr	r3, [r1, #20]
 80014c8:	0758      	lsls	r0, r3, #29
 80014ca:	d5fc      	bpl.n	80014c6 <LCD_Init+0x486>
 80014cc:	680b      	ldr	r3, [r1, #0]
 80014ce:	4a2d      	ldr	r2, [pc, #180]	@ (8001584 <LCD_Init+0x544>)
 80014d0:	f443 7300 	orr.w	r3, r3, #512	@ 0x200
 80014d4:	600b      	str	r3, [r1, #0]
 80014d6:	6993      	ldr	r3, [r2, #24]
 80014d8:	0799      	lsls	r1, r3, #30
 80014da:	d4fc      	bmi.n	80014d6 <LCD_Init+0x496>
 80014dc:	6813      	ldr	r3, [r2, #0]
 80014de:	4929      	ldr	r1, [pc, #164]	@ (8001584 <LCD_Init+0x544>)
 80014e0:	f443 7380 	orr.w	r3, r3, #256	@ 0x100
 80014e4:	6013      	str	r3, [r2, #0]
 80014e6:	694b      	ldr	r3, [r1, #20]
 80014e8:	07da      	lsls	r2, r3, #31
 80014ea:	d5fc      	bpl.n	80014e6 <LCD_Init+0x4a6>
 80014ec:	234e      	movs	r3, #78	@ 0x4e
 80014ee:	4a25      	ldr	r2, [pc, #148]	@ (8001584 <LCD_Init+0x544>)
 80014f0:	610b      	str	r3, [r1, #16]
 80014f2:	6953      	ldr	r3, [r2, #20]
 80014f4:	079b      	lsls	r3, r3, #30
 80014f6:	d5fc      	bpl.n	80014f2 <LCD_Init+0x4b2>
 80014f8:	6953      	ldr	r3, [r2, #20]
 80014fa:	4922      	ldr	r1, [pc, #136]	@ (8001584 <LCD_Init+0x544>)
 80014fc:	6993      	ldr	r3, [r2, #24]
 80014fe:	694b      	ldr	r3, [r1, #20]
 8001500:	0618      	lsls	r0, r3, #24
 8001502:	d5fc      	bpl.n	80014fe <LCD_Init+0x4be>
 8001504:	231c      	movs	r3, #28
 8001506:	4a1f      	ldr	r2, [pc, #124]	@ (8001584 <LCD_Init+0x544>)
 8001508:	610b      	str	r3, [r1, #16]
 800150a:	6953      	ldr	r3, [r2, #20]
 800150c:	0759      	lsls	r1, r3, #29
 800150e:	d5fc      	bpl.n	800150a <LCD_Init+0x4ca>
 8001510:	6813      	ldr	r3, [r2, #0]
 8001512:	2100      	movs	r1, #0
 8001514:	f443 7300 	orr.w	r3, r3, #512	@ 0x200
 8001518:	6013      	str	r3, [r2, #0]
 800151a:	9101      	str	r1, [sp, #4]
 800151c:	9b01      	ldr	r3, [sp, #4]
 800151e:	f241 3287 	movw	r2, #4999	@ 0x1387
 8001522:	4293      	cmp	r3, r2
 8001524:	dc05      	bgt.n	8001532 <LCD_Init+0x4f2>
 8001526:	9b01      	ldr	r3, [sp, #4]
 8001528:	3301      	adds	r3, #1
 800152a:	9301      	str	r3, [sp, #4]
 800152c:	9b01      	ldr	r3, [sp, #4]
 800152e:	4293      	cmp	r3, r2
 8001530:	ddf9      	ble.n	8001526 <LCD_Init+0x4e6>
 8001532:	4a14      	ldr	r2, [pc, #80]	@ (8001584 <LCD_Init+0x544>)
 8001534:	6993      	ldr	r3, [r2, #24]
 8001536:	079b      	lsls	r3, r3, #30
 8001538:	d4fc      	bmi.n	8001534 <LCD_Init+0x4f4>
 800153a:	6813      	ldr	r3, [r2, #0]
 800153c:	4911      	ldr	r1, [pc, #68]	@ (8001584 <LCD_Init+0x544>)
 800153e:	f443 7380 	orr.w	r3, r3, #256	@ 0x100
 8001542:	6013      	str	r3, [r2, #0]
 8001544:	694b      	ldr	r3, [r1, #20]
 8001546:	07d8      	lsls	r0, r3, #31
 8001548:	d5fc      	bpl.n	8001544 <LCD_Init+0x504>
 800154a:	234e      	movs	r3, #78	@ 0x4e
 800154c:	4a0d      	ldr	r2, [pc, #52]	@ (8001584 <LCD_Init+0x544>)
 800154e:	610b      	str	r3, [r1, #16]
 8001550:	6953      	ldr	r3, [r2, #20]
 8001552:	0799      	lsls	r1, r3, #30
 8001554:	d5fc      	bpl.n	8001550 <LCD_Init+0x510>
 8001556:	6953      	ldr	r3, [r2, #20]
 8001558:	490a      	ldr	r1, [pc, #40]	@ (8001584 <LCD_Init+0x544>)
 800155a:	6993      	ldr	r3, [r2, #24]
 800155c:	694b      	ldr	r3, [r1, #20]
 800155e:	061a      	lsls	r2, r3, #24
 8001560:	d5fc      	bpl.n	800155c <LCD_Init+0x51c>
 8001562:	2318      	movs	r3, #24
 8001564:	4a07      	ldr	r2, [pc, #28]	@ (8001584 <LCD_Init+0x544>)
 8001566:	610b      	str	r3, [r1, #16]
 8001568:	6953      	ldr	r3, [r2, #20]
 800156a:	075b      	lsls	r3, r3, #29
 800156c:	d5fc      	bpl.n	8001568 <LCD_Init+0x528>
 800156e:	6813      	ldr	r3, [r2, #0]
 8001570:	2005      	movs	r0, #5
 8001572:	f443 7300 	orr.w	r3, r3, #512	@ 0x200
 8001576:	6013      	str	r3, [r2, #0]
 8001578:	b009      	add	sp, #36	@ 0x24
 800157a:	f85d eb04 	ldr.w	lr, [sp], #4
 800157e:	f000 bea7 	b.w	80022d0 <TIM2_Delay>
 8001582:	bf00      	nop
 8001584:	40005400 			@ <UNDEFINED> instruction: 40005400

08001588 <LCD_Set_Cursor_To>:
 8001588:	b929      	cbnz	r1, 8001596 <LCD_Set_Cursor_To+0xe>
 800158a:	f1a2 0380 	sub.w	r3, r2, #128	@ 0x80
 800158e:	460a      	mov	r2, r1
 8001590:	b2d9      	uxtb	r1, r3
 8001592:	f7ff b9f1 	b.w	8000978 <LCD_Send_To>
 8001596:	f1a2 0140 	sub.w	r1, r2, #64	@ 0x40
 800159a:	b2c9      	uxtb	r1, r1
 800159c:	2200      	movs	r2, #0
 800159e:	f7ff b9eb 	b.w	8000978 <LCD_Send_To>
 80015a2:	bf00      	nop

080015a4 <LCD_Set_Cursor>:
 80015a4:	b928      	cbnz	r0, 80015b2 <LCD_Set_Cursor+0xe>
 80015a6:	3980      	subs	r1, #128	@ 0x80
 80015a8:	4602      	mov	r2, r0
 80015aa:	b2c9      	uxtb	r1, r1
 80015ac:	204e      	movs	r0, #78	@ 0x4e
 80015ae:	f7ff b9e3 	b.w	8000978 <LCD_Send_To>
 80015b2:	3940      	subs	r1, #64	@ 0x40
 80015b4:	2200      	movs	r2, #0
 80015b6:	b2c9      	uxtb	r1, r1
 80015b8:	204e      	movs	r0, #78	@ 0x4e
 80015ba:	f7ff b9dd 	b.w	8000978 <LCD_Send_To>
 80015be:	bf00      	nop

080015c0 <LCD_String_To>:
 80015c0:	b538      	push	{r3, r4, r5, lr}
 80015c2:	460c      	mov	r4, r1
 80015c4:	7809      	ldrb	r1, [r1, #0]
 80015c6:	b141      	cbz	r1, 80015da <LCD_String_To+0x1a>
 80015c8:	4605      	mov	r5, r0
 80015ca:	2201      	movs	r2, #1
 80015cc:	4628      	mov	r0, r5
 80015ce:	f7ff f9d3 	bl	8000978 <LCD_Send_To>
 80015d2:	f814 1f01 	ldrb.w	r1, [r4, #1]!
 80015d6:	2900      	cmp	r1, #0
 80015d8:	d1f7      	bne.n	80015ca <LCD_String_To+0xa>
 80015da:	bd38      	pop	{r3, r4, r5, pc}

080015dc <LCD_String>:
 80015dc:	b510      	push	{r4, lr}
 80015de:	4604      	mov	r4, r0
 80015e0:	7800      	ldrb	r0, [r0, #0]
 80015e2:	b130      	cbz	r0, 80015f2 <LCD_String+0x16>
 80015e4:	2101      	movs	r1, #1
 80015e6:	f7ff f883 	bl	80006f0 <LCD_Send_To.constprop.0>
 80015ea:	f814 0f01 	ldrb.w	r0, [r4, #1]!
 80015ee:	2800      	cmp	r0, #0
 80015f0:	d1f8      	bne.n	80015e4 <LCD_String+0x8>
 80015f2:	bd10      	pop	{r4, pc}

080015f4 <LCD2_Show_State>:
 80015f4:	2200      	movs	r2, #0
 80015f6:	b510      	push	{r4, lr}
 80015f8:	4611      	mov	r1, r2
 80015fa:	4604      	mov	r4, r0
 80015fc:	204c      	movs	r0, #76	@ 0x4c
 80015fe:	f7ff ffc3 	bl	8001588 <LCD_Set_Cursor_To>
 8001602:	2c04      	cmp	r4, #4
 8001604:	d84f      	bhi.n	80016a6 <LCD2_Show_State+0xb2>
 8001606:	e8df f004 	tbb	[pc, r4]
 800160a:	3f302112 			@ <UNDEFINED> instruction: 3f302112
 800160e:	492c0003 			@ <UNDEFINED> instruction: 492c0003
 8001612:	204c      	movs	r0, #76	@ 0x4c
 8001614:	f7ff ffd4 	bl	80015c0 <LCD_String_To>
 8001618:	2101      	movs	r1, #1
 800161a:	204c      	movs	r0, #76	@ 0x4c
 800161c:	2200      	movs	r2, #0
 800161e:	f7ff ffb3 	bl	8001588 <LCD_Set_Cursor_To>
 8001622:	e8bd 4010 	ldmia.w	sp!, {r4, lr}
 8001626:	4928      	ldr	r1, [pc, #160]	@ (80016c8 <LCD2_Show_State+0xd4>)
 8001628:	204c      	movs	r0, #76	@ 0x4c
 800162a:	f7ff bfc9 	b.w	80015c0 <LCD_String_To>
 800162e:	4927      	ldr	r1, [pc, #156]	@ (80016cc <LCD2_Show_State+0xd8>)
 8001630:	204c      	movs	r0, #76	@ 0x4c
 8001632:	f7ff ffc5 	bl	80015c0 <LCD_String_To>
 8001636:	2101      	movs	r1, #1
 8001638:	204c      	movs	r0, #76	@ 0x4c
 800163a:	2200      	movs	r2, #0
 800163c:	f7ff ffa4 	bl	8001588 <LCD_Set_Cursor_To>
 8001640:	e8bd 4010 	ldmia.w	sp!, {r4, lr}
 8001644:	4922      	ldr	r1, [pc, #136]	@ (80016d0 <LCD2_Show_State+0xdc>)
 8001646:	204c      	movs	r0, #76	@ 0x4c
 8001648:	f7ff bfba 	b.w	80015c0 <LCD_String_To>
 800164c:	4921      	ldr	r1, [pc, #132]	@ (80016d4 <LCD2_Show_State+0xe0>)
 800164e:	204c      	movs	r0, #76	@ 0x4c
 8001650:	f7ff ffb6 	bl	80015c0 <LCD_String_To>
 8001654:	2101      	movs	r1, #1
 8001656:	204c      	movs	r0, #76	@ 0x4c
 8001658:	2200      	movs	r2, #0
 800165a:	f7ff ff95 	bl	8001588 <LCD_Set_Cursor_To>
 800165e:	e8bd 4010 	ldmia.w	sp!, {r4, lr}
 8001662:	491d      	ldr	r1, [pc, #116]	@ (80016d8 <LCD2_Show_State+0xe4>)
 8001664:	204c      	movs	r0, #76	@ 0x4c
 8001666:	f7ff bfab 	b.w	80015c0 <LCD_String_To>
 800166a:	491c      	ldr	r1, [pc, #112]	@ (80016dc <LCD2_Show_State+0xe8>)
 800166c:	204c      	movs	r0, #76	@ 0x4c
 800166e:	f7ff ffa7 	bl	80015c0 <LCD_String_To>
 8001672:	2101      	movs	r1, #1
 8001674:	204c      	movs	r0, #76	@ 0x4c
 8001676:	2200      	movs	r2, #0
 8001678:	f7ff ff86 	bl	8001588 <LCD_Set_Cursor_To>
 800167c:	e8bd 4010 	ldmia.w	sp!, {r4, lr}
 8001680:	4917      	ldr	r1, [pc, #92]	@ (80016e0 <LCD2_Show_State+0xec>)
 8001682:	204c      	movs	r0, #76	@ 0x4c
 8001684:	f7ff bf9c 	b.w	80015c0 <LCD_String_To>
 8001688:	4916      	ldr	r1, [pc, #88]	@ (80016e4 <LCD2_Show_State+0xf0>)
 800168a:	204c      	movs	r0, #76	@ 0x4c
 800168c:	f7ff ff98 	bl	80015c0 <LCD_String_To>
 8001690:	2101      	movs	r1, #1
 8001692:	204c      	movs	r0, #76	@ 0x4c
 8001694:	2200      	movs	r2, #0
 8001696:	f7ff ff77 	bl	8001588 <LCD_Set_Cursor_To>
 800169a:	e8bd 4010 	ldmia.w	sp!, {r4, lr}
 800169e:	4912      	ldr	r1, [pc, #72]	@ (80016e8 <LCD2_Show_State+0xf4>)
 80016a0:	204c      	movs	r0, #76	@ 0x4c
 80016a2:	f7ff bf8d 	b.w	80015c0 <LCD_String_To>
 80016a6:	4911      	ldr	r1, [pc, #68]	@ (80016ec <LCD2_Show_State+0xf8>)
 80016a8:	204c      	movs	r0, #76	@ 0x4c
 80016aa:	f7ff ff89 	bl	80015c0 <LCD_String_To>
 80016ae:	2101      	movs	r1, #1
 80016b0:	204c      	movs	r0, #76	@ 0x4c
 80016b2:	2200      	movs	r2, #0
 80016b4:	f7ff ff68 	bl	8001588 <LCD_Set_Cursor_To>
 80016b8:	e8bd 4010 	ldmia.w	sp!, {r4, lr}
 80016bc:	490c      	ldr	r1, [pc, #48]	@ (80016f0 <LCD2_Show_State+0xfc>)
 80016be:	204c      	movs	r0, #76	@ 0x4c
 80016c0:	f7ff bf7e 	b.w	80015c0 <LCD_String_To>
 80016c4:	08007c5c 			@ <UNDEFINED> instruction: 08007c5c
 80016c8:	08007c6c 			@ <UNDEFINED> instruction: 08007c6c
 80016cc:	08007bdc 			@ <UNDEFINED> instruction: 08007bdc
 80016d0:	08007bec 			@ <UNDEFINED> instruction: 08007bec
 80016d4:	08007bfc 			@ <UNDEFINED> instruction: 08007bfc
 80016d8:	08007c0c 			@ <UNDEFINED> instruction: 08007c0c
 80016dc:	08007c1c 			@ <UNDEFINED> instruction: 08007c1c
 80016e0:	08007c2c 			@ <UNDEFINED> instruction: 08007c2c
 80016e4:	08007c3c 			@ <UNDEFINED> instruction: 08007c3c
 80016e8:	08007c4c 			@ <UNDEFINED> instruction: 08007c4c
 80016ec:	08007c7c 			@ <UNDEFINED> instruction: 08007c7c
 80016f0:	08007c8c 			@ <UNDEFINED> instruction: 08007c8c

080016f4 <LED_Init>:
 80016f4:	490a      	ldr	r1, [pc, #40]	@ (8001720 <LED_Init+0x2c>)
 80016f6:	4b0b      	ldr	r3, [pc, #44]	@ (8001724 <LED_Init+0x30>)
 80016f8:	6b0a      	ldr	r2, [r1, #48]	@ 0x30
 80016fa:	f042 0201 	orr.w	r2, r2, #1
 80016fe:	630a      	str	r2, [r1, #48]	@ 0x30
 8001700:	681a      	ldr	r2, [r3, #0]
 8001702:	f422 6240 	bic.w	r2, r2, #3072	@ 0xc00
 8001706:	f442 6280 	orr.w	r2, r2, #1024	@ 0x400
 800170a:	601a      	str	r2, [r3, #0]
 800170c:	685a      	ldr	r2, [r3, #4]
 800170e:	f022 0220 	bic.w	r2, r2, #32
 8001712:	605a      	str	r2, [r3, #4]
 8001714:	695a      	ldr	r2, [r3, #20]
 8001716:	f022 0220 	bic.w	r2, r2, #32
 800171a:	615a      	str	r2, [r3, #20]
 800171c:	4770      	bx	lr
 800171e:	bf00      	nop
 8001720:	40023800 			@ <UNDEFINED> instruction: 40023800
 8001724:	40020000 			@ <UNDEFINED> instruction: 40020000

08001728 <LED_On>:
 8001728:	4a02      	ldr	r2, [pc, #8]	@ (8001734 <LED_On+0xc>)
 800172a:	6953      	ldr	r3, [r2, #20]
 800172c:	f043 0320 	orr.w	r3, r3, #32
 8001730:	6153      	str	r3, [r2, #20]
 8001732:	4770      	bx	lr
 8001734:	40020000 			@ <UNDEFINED> instruction: 40020000

08001738 <LED_Off>:
 8001738:	4a02      	ldr	r2, [pc, #8]	@ (8001744 <LED_Off+0xc>)
 800173a:	6953      	ldr	r3, [r2, #20]
 800173c:	f023 0320 	bic.w	r3, r3, #32
 8001740:	6153      	str	r3, [r2, #20]
 8001742:	4770      	bx	lr
 8001744:	40020000 			@ <UNDEFINED> instruction: 40020000

08001748 <Main>:
 8001748:	e92d 4ff0 	stmdb	sp!, {r4, r5, r6, r7, r8, r9, sl, fp, lr}
 800174c:	4aac      	ldr	r2, [pc, #688]	@ (8001a00 <Main+0x2b8>)
 800174e:	f8df a300 	ldr.w	sl, [pc, #768]	@ 8001a50 <Main+0x308>
 8001752:	f8d2 3088 	ldr.w	r3, [r2, #136]	@ 0x88
 8001756:	4fab      	ldr	r7, [pc, #684]	@ (8001a04 <Main+0x2bc>)
 8001758:	f8df 92f8 	ldr.w	r9, [pc, #760]	@ 8001a54 <Main+0x30c>
 800175c:	f443 0370 	orr.w	r3, r3, #15728640	@ 0xf00000
 8001760:	b08f      	sub	sp, #60	@ 0x3c
 8001762:	f8c2 3088 	str.w	r3, [r2, #136]	@ 0x88
 8001766:	f7fe fee1 	bl	800052c <Clock_Init>
 800176a:	f44f 30e1 	mov.w	r0, #115200	@ 0x1c200
 800176e:	f000 fecf 	bl	8002510 <Uart2_Init>
 8001772:	f44f 5016 	mov.w	r0, #9600	@ 0x2580
 8001776:	f000 ff53 	bl	8002620 <Uart1_Init>
 800177a:	4aa3      	ldr	r2, [pc, #652]	@ (8001a08 <Main+0x2c0>)
 800177c:	6811      	ldr	r1, [r2, #0]
 800177e:	2300      	movs	r3, #0
 8001780:	2202      	movs	r2, #2
 8001782:	6888      	ldr	r0, [r1, #8]
 8001784:	4619      	mov	r1, r3
 8001786:	f002 fc61 	bl	800404c <setvbuf>
 800178a:	f7ff ffb3 	bl	80016f4 <LED_Init>
 800178e:	f000 fb91 	bl	8001eb4 <Status_LED_Init>
 8001792:	f000 f961 	bl	8001a58 <Motor_Init>
 8001796:	f7ff fc53 	bl	8001040 <LCD_Init>
 800179a:	204c      	movs	r0, #76	@ 0x4c
 800179c:	f7ff f9be 	bl	8000b1c <LCD_Init_To>
 80017a0:	f001 f91e 	bl	80029e0 <Ultrasonic_Init>
 80017a4:	f7fe ff3c 	bl	8000620 <Key_Poll_Init>
 80017a8:	f7fe fe78 	bl	800049c <Buzzer_Init>
 80017ac:	2200      	movs	r2, #0
 80017ae:	4610      	mov	r0, r2
 80017b0:	4611      	mov	r1, r2
 80017b2:	f7fe fd27 	bl	8000204 <RTC_Init_And_Alarm_Set>
 80017b6:	4895      	ldr	r0, [pc, #596]	@ (8001a0c <Main+0x2c4>)
 80017b8:	f002 fc36 	bl	8004028 <iprintf>
 80017bc:	4894      	ldr	r0, [pc, #592]	@ (8001a10 <Main+0x2c8>)
 80017be:	f002 fc33 	bl	8004028 <iprintf>
 80017c2:	4894      	ldr	r0, [pc, #592]	@ (8001a14 <Main+0x2cc>)
 80017c4:	f002 fc30 	bl	8004028 <iprintf>
 80017c8:	f000 fbfe 	bl	8001fc8 <Status_LED_All_Off>
 80017cc:	f001 f846 	bl	800285c <Process_UART_Input>
 80017d0:	f8d9 0000 	ldr.w	r0, [r9]
 80017d4:	f8da 2000 	ldr.w	r2, [sl]
 80017d8:	f3c0 1302 	ubfx	r3, r0, #4, #3
 80017dc:	eb03 0383 	add.w	r3, r3, r3, lsl #2
 80017e0:	f000 060f 	and.w	r6, r0, #15
 80017e4:	eb06 0643 	add.w	r6, r6, r3, lsl #1
 80017e8:	42b2      	cmp	r2, r6
 80017ea:	d054      	beq.n	8001896 <Main+0x14e>
 80017ec:	f8d9 501c 	ldr.w	r5, [r9, #28]
 80017f0:	f3c0 3202 	ubfx	r2, r0, #12, #3
 80017f4:	f3c0 5301 	ubfx	r3, r0, #20, #2
 80017f8:	f3c0 2403 	ubfx	r4, r0, #8, #4
 80017fc:	eb03 0383 	add.w	r3, r3, r3, lsl #2
 8001800:	f3c0 4003 	ubfx	r0, r0, #16, #4
 8001804:	eb02 0282 	add.w	r2, r2, r2, lsl #2
 8001808:	eb04 0242 	add.w	r2, r4, r2, lsl #1
 800180c:	f3c5 1102 	ubfx	r1, r5, #4, #3
 8001810:	eb00 0443 	add.w	r4, r0, r3, lsl #1
 8001814:	f3c5 3302 	ubfx	r3, r5, #12, #3
 8001818:	eb01 0c81 	add.w	ip, r1, r1, lsl #2
 800181c:	eb03 0183 	add.w	r1, r3, r3, lsl #2
 8001820:	f3c5 5301 	ubfx	r3, r5, #20, #2
 8001824:	f005 0b0f 	and.w	fp, r5, #15
 8001828:	eb03 0383 	add.w	r3, r3, r3, lsl #2
 800182c:	f3c5 2803 	ubfx	r8, r5, #8, #4
 8001830:	f3c5 4503 	ubfx	r5, r5, #16, #4
 8001834:	eb0b 0b4c 	add.w	fp, fp, ip, lsl #1
 8001838:	eb08 0841 	add.w	r8, r8, r1, lsl #1
 800183c:	eb05 0543 	add.w	r5, r5, r3, lsl #1
 8001840:	683b      	ldr	r3, [r7, #0]
 8001842:	9303      	str	r3, [sp, #12]
 8001844:	4621      	mov	r1, r4
 8001846:	4633      	mov	r3, r6
 8001848:	e9cd 5800 	strd	r5, r8, [sp]
 800184c:	4872      	ldr	r0, [pc, #456]	@ (8001a18 <Main+0x2d0>)
 800184e:	f8cd b008 	str.w	fp, [sp, #8]
 8001852:	9205      	str	r2, [sp, #20]
 8001854:	f002 fbe8 	bl	8004028 <iprintf>
 8001858:	9b05      	ldr	r3, [sp, #20]
 800185a:	4970      	ldr	r1, [pc, #448]	@ (8001a1c <Main+0x2d4>)
 800185c:	9600      	str	r6, [sp, #0]
 800185e:	4622      	mov	r2, r4
 8001860:	a809      	add	r0, sp, #36	@ 0x24
 8001862:	f002 fcc5 	bl	80041f0 <siprintf>
 8001866:	2100      	movs	r1, #0
 8001868:	4608      	mov	r0, r1
 800186a:	f7ff fe9b 	bl	80015a4 <LCD_Set_Cursor>
 800186e:	a809      	add	r0, sp, #36	@ 0x24
 8001870:	f7ff feb4 	bl	80015dc <LCD_String>
 8001874:	4643      	mov	r3, r8
 8001876:	462a      	mov	r2, r5
 8001878:	4969      	ldr	r1, [pc, #420]	@ (8001a20 <Main+0x2d8>)
 800187a:	f8cd b000 	str.w	fp, [sp]
 800187e:	a809      	add	r0, sp, #36	@ 0x24
 8001880:	f002 fcb6 	bl	80041f0 <siprintf>
 8001884:	2100      	movs	r1, #0
 8001886:	2001      	movs	r0, #1
 8001888:	f7ff fe8c 	bl	80015a4 <LCD_Set_Cursor>
 800188c:	a809      	add	r0, sp, #36	@ 0x24
 800188e:	f7ff fea5 	bl	80015dc <LCD_String>
 8001892:	f8ca 6000 	str.w	r6, [sl]
 8001896:	687b      	ldr	r3, [r7, #4]
 8001898:	2b01      	cmp	r3, #1
 800189a:	d051      	beq.n	8001940 <Main+0x1f8>
 800189c:	f001 f8c8 	bl	8002a30 <Ultrasonic_Get_Distance>
 80018a0:	4604      	mov	r4, r0
 80018a2:	68b8      	ldr	r0, [r7, #8]
 80018a4:	2804      	cmp	r0, #4
 80018a6:	d80b      	bhi.n	80018c0 <Main+0x178>
 80018a8:	e8df f000 	tbb	[pc, r0]
 80018ac:	11153003 			@ <UNDEFINED> instruction: 11153003
 80018b0:	f0010003 			@ <UNDEFINED> instruction: f0010003
 80018b4:	f88b f000 	strb.w	pc, [fp]
 80018b8:	00df      	lsls	r7, r3, #3
 80018ba:	2846      	cmp	r0, #70	@ 0x46
 80018bc:	d02a      	beq.n	8001914 <Main+0x1cc>
 80018be:	68b8      	ldr	r0, [r7, #8]
 80018c0:	4621      	mov	r1, r4
 80018c2:	f7ff fe97 	bl	80015f4 <LCD2_Show_State>
 80018c6:	2064      	movs	r0, #100	@ 0x64
 80018c8:	f000 fc90 	bl	80021ec <Delay_ms>
 80018cc:	e77e      	b.n	80017cc <Main+0x84>
 80018ce:	2c0e      	cmp	r4, #14
 80018d0:	dc74      	bgt.n	80019bc <Main+0x274>
 80018d2:	2003      	movs	r0, #3
 80018d4:	e7f4      	b.n	80018c0 <Main+0x178>
 80018d6:	f7fe feb3 	bl	8000640 <Key_Get_Pressed>
 80018da:	2800      	cmp	r0, #0
 80018dc:	d0ef      	beq.n	80018be <Main+0x176>
 80018de:	4851      	ldr	r0, [pc, #324]	@ (8001a24 <Main+0x2dc>)
 80018e0:	f002 fba2 	bl	8004028 <iprintf>
 80018e4:	f7fe fe1c 	bl	8000520 <Buzzer_Off>
 80018e8:	484f      	ldr	r0, [pc, #316]	@ (8001a28 <Main+0x2e0>)
 80018ea:	f002 fb9d 	bl	8004028 <iprintf>
 80018ee:	f000 fbdb 	bl	80020a8 <Status_LED_Green>
 80018f2:	2032      	movs	r0, #50	@ 0x32
 80018f4:	f000 f9fc 	bl	8001cf0 <Motor_Set_Percent>
 80018f8:	f000 fa6c 	bl	8001dd4 <Move_CCW>
 80018fc:	f7fe feb2 	bl	8000664 <Key_Wait_Key_Released>
 8001900:	2032      	movs	r0, #50	@ 0x32
 8001902:	f000 fce5 	bl	80022d0 <TIM2_Delay>
 8001906:	2303      	movs	r3, #3
 8001908:	60bb      	str	r3, [r7, #8]
 800190a:	e7e2      	b.n	80018d2 <Main+0x18a>
 800190c:	2c01      	cmp	r4, #1
 800190e:	d062      	beq.n	80019d6 <Main+0x28e>
 8001910:	2001      	movs	r0, #1
 8001912:	e7d5      	b.n	80018c0 <Main+0x178>
 8001914:	4845      	ldr	r0, [pc, #276]	@ (8001a2c <Main+0x2e4>)
 8001916:	f002 fb87 	bl	8004028 <iprintf>
 800191a:	f000 fb75 	bl	8002008 <Status_LED_Red>
 800191e:	f000 f963 	bl	8001be8 <Rotate_Next_Slot>
 8001922:	f000 f913 	bl	8001b4c <Servo_Open_Close>
 8001926:	4842      	ldr	r0, [pc, #264]	@ (8001a30 <Main+0x2e8>)
 8001928:	f002 fb7e 	bl	8004028 <iprintf>
 800192c:	f000 fb94 	bl	8002058 <Status_LED_Yellow>
 8001930:	2032      	movs	r0, #50	@ 0x32
 8001932:	f000 f9dd 	bl	8001cf0 <Motor_Set_Percent>
 8001936:	f000 fa23 	bl	8001d80 <Move_CW>
 800193a:	2301      	movs	r3, #1
 800193c:	60bb      	str	r3, [r7, #8]
 800193e:	e7e7      	b.n	8001910 <Main+0x1c8>
 8001940:	483c      	ldr	r0, [pc, #240]	@ (8001a34 <Main+0x2ec>)
 8001942:	f002 fb71 	bl	8004028 <iprintf>
 8001946:	f000 fb5f 	bl	8002008 <Status_LED_Red>
 800194a:	f000 f94d 	bl	8001be8 <Rotate_Next_Slot>
 800194e:	f000 f8fd 	bl	8001b4c <Servo_Open_Close>
 8001952:	2300      	movs	r3, #0
 8001954:	9307      	str	r3, [sp, #28]
 8001956:	9b07      	ldr	r3, [sp, #28]
 8001958:	f5b3 1f80 	cmp.w	r3, #1048576	@ 0x100000
 800195c:	da06      	bge.n	800196c <Main+0x224>
 800195e:	9b07      	ldr	r3, [sp, #28]
 8001960:	3301      	adds	r3, #1
 8001962:	9307      	str	r3, [sp, #28]
 8001964:	9b07      	ldr	r3, [sp, #28]
 8001966:	f5b3 1f80 	cmp.w	r3, #1048576	@ 0x100000
 800196a:	dbf8      	blt.n	800195e <Main+0x216>
 800196c:	f000 f93c 	bl	8001be8 <Rotate_Next_Slot>
 8001970:	2300      	movs	r3, #0
 8001972:	9308      	str	r3, [sp, #32]
 8001974:	9b08      	ldr	r3, [sp, #32]
 8001976:	f5b3 1f80 	cmp.w	r3, #1048576	@ 0x100000
 800197a:	da06      	bge.n	800198a <Main+0x242>
 800197c:	9b08      	ldr	r3, [sp, #32]
 800197e:	3301      	adds	r3, #1
 8001980:	9308      	str	r3, [sp, #32]
 8001982:	9b08      	ldr	r3, [sp, #32]
 8001984:	f5b3 1f80 	cmp.w	r3, #1048576	@ 0x100000
 8001988:	dbf8      	blt.n	800197c <Main+0x234>
 800198a:	f000 f979 	bl	8001c80 <Supply_Pill>
 800198e:	2300      	movs	r3, #0
 8001990:	4829      	ldr	r0, [pc, #164]	@ (8001a38 <Main+0x2f0>)
 8001992:	607b      	str	r3, [r7, #4]
 8001994:	f002 fb48 	bl	8004028 <iprintf>
 8001998:	68bb      	ldr	r3, [r7, #8]
 800199a:	f033 0304 	bics.w	r3, r3, #4
 800199e:	f47f af7d 	bne.w	800189c <Main+0x154>
 80019a2:	4826      	ldr	r0, [pc, #152]	@ (8001a3c <Main+0x2f4>)
 80019a4:	f002 fb40 	bl	8004028 <iprintf>
 80019a8:	f000 fb56 	bl	8002058 <Status_LED_Yellow>
 80019ac:	2032      	movs	r0, #50	@ 0x32
 80019ae:	f000 f99f 	bl	8001cf0 <Motor_Set_Percent>
 80019b2:	f000 f9e5 	bl	8001d80 <Move_CW>
 80019b6:	2301      	movs	r3, #1
 80019b8:	60bb      	str	r3, [r7, #8]
 80019ba:	e76f      	b.n	800189c <Main+0x154>
 80019bc:	f000 f9d4 	bl	8001d68 <Stop>
 80019c0:	f7fe fdae 	bl	8000520 <Buzzer_Off>
 80019c4:	f000 fb00 	bl	8001fc8 <Status_LED_All_Off>
 80019c8:	481d      	ldr	r0, [pc, #116]	@ (8001a40 <Main+0x2f8>)
 80019ca:	f002 fb2d 	bl	8004028 <iprintf>
 80019ce:	2304      	movs	r3, #4
 80019d0:	4618      	mov	r0, r3
 80019d2:	60bb      	str	r3, [r7, #8]
 80019d4:	e774      	b.n	80018c0 <Main+0x178>
 80019d6:	f000 f9c7 	bl	8001d68 <Stop>
 80019da:	4621      	mov	r1, r4
 80019dc:	4819      	ldr	r0, [pc, #100]	@ (8001a44 <Main+0x2fc>)
 80019de:	f002 fb23 	bl	8004028 <iprintf>
 80019e2:	f7fe fd93 	bl	800050c <Buzzer_On>
 80019e6:	f000 faef 	bl	8001fc8 <Status_LED_All_Off>
 80019ea:	4817      	ldr	r0, [pc, #92]	@ (8001a48 <Main+0x300>)
 80019ec:	f002 fb1c 	bl	8004028 <iprintf>
 80019f0:	4816      	ldr	r0, [pc, #88]	@ (8001a4c <Main+0x304>)
 80019f2:	f002 fb19 	bl	8004028 <iprintf>
 80019f6:	2302      	movs	r3, #2
 80019f8:	4618      	mov	r0, r3
 80019fa:	60bb      	str	r3, [r7, #8]
 80019fc:	e760      	b.n	80018c0 <Main+0x178>
 80019fe:	bf00      	nop
 8001a00:	e000ed00 			@ <UNDEFINED> instruction: e000ed00
 8001a04:	200001d4 	ldrdcs	r0, [r0], -r4
 8001a08:	2000000c 			@ <UNDEFINED> instruction: 2000000c
 8001a0c:	08007c9c 			@ <UNDEFINED> instruction: 08007c9c
 8001a10:	08007cd0 			@ <UNDEFINED> instruction: 08007cd0
 8001a14:	08007d04 			@ <UNDEFINED> instruction: 08007d04
 8001a18:	08007d28 			@ <UNDEFINED> instruction: 08007d28
 8001a1c:	08007d68 			@ <UNDEFINED> instruction: 08007d68
 8001a20:	08007d80 			@ <UNDEFINED> instruction: 08007d80
 8001a24:	08007ec8 			@ <UNDEFINED> instruction: 08007ec8
 8001a28:	08007ee8 			@ <UNDEFINED> instruction: 08007ee8
 8001a2c:	08007df8 			@ <UNDEFINED> instruction: 08007df8
 8001a30:	08007e18 			@ <UNDEFINED> instruction: 08007e18
 8001a34:	08007d98 			@ <UNDEFINED> instruction: 08007d98
 8001a38:	08007dc4 			@ <UNDEFINED> instruction: 08007dc4
 8001a3c:	08007dc8 			@ <UNDEFINED> instruction: 08007dc8
 8001a40:	08007f1c 			@ <UNDEFINED> instruction: 08007f1c
 8001a44:	08007e40 			@ <UNDEFINED> instruction: 08007e40
 8001a48:	08007e60 			@ <UNDEFINED> instruction: 08007e60
 8001a4c:	08007e98 			@ <UNDEFINED> instruction: 08007e98
 8001a50:	20000000 			@ <UNDEFINED> instruction: 20000000
 8001a54:	40002800 			@ <UNDEFINED> instruction: 40002800

08001a58 <Motor_Init>:
 8001a58:	b500      	push	{lr}
 8001a5a:	4938      	ldr	r1, [pc, #224]	@ (8001b3c <Motor_Init+0xe4>)
 8001a5c:	4b38      	ldr	r3, [pc, #224]	@ (8001b40 <Motor_Init+0xe8>)
 8001a5e:	6c08      	ldr	r0, [r1, #64]	@ 0x40
 8001a60:	4a38      	ldr	r2, [pc, #224]	@ (8001b44 <Motor_Init+0xec>)
 8001a62:	f040 0008 	orr.w	r0, r0, #8
 8001a66:	6408      	str	r0, [r1, #64]	@ 0x40
 8001a68:	6818      	ldr	r0, [r3, #0]
 8001a6a:	f020 000f 	bic.w	r0, r0, #15
 8001a6e:	f040 000a 	orr.w	r0, r0, #10
 8001a72:	6018      	str	r0, [r3, #0]
 8001a74:	6a18      	ldr	r0, [r3, #32]
 8001a76:	f020 00ff 	bic.w	r0, r0, #255	@ 0xff
 8001a7a:	f040 0022 	orr.w	r0, r0, #34	@ 0x22
 8001a7e:	6218      	str	r0, [r3, #32]
 8001a80:	6858      	ldr	r0, [r3, #4]
 8001a82:	f020 0001 	bic.w	r0, r0, #1
 8001a86:	6058      	str	r0, [r3, #4]
 8001a88:	6858      	ldr	r0, [r3, #4]
 8001a8a:	f020 0002 	bic.w	r0, r0, #2
 8001a8e:	6058      	str	r0, [r3, #4]
 8001a90:	f04f 0e5f 	mov.w	lr, #95	@ 0x5f
 8001a94:	f240 30e7 	movw	r0, #999	@ 0x3e7
 8001a98:	f8c2 e028 	str.w	lr, [r2, #40]	@ 0x28
 8001a9c:	62d0      	str	r0, [r2, #44]	@ 0x2c
 8001a9e:	f646 0068 	movw	r0, #26728	@ 0x6868
 8001aa2:	6190      	str	r0, [r2, #24]
 8001aa4:	f04f 0c00 	mov.w	ip, #0
 8001aa8:	2011      	movs	r0, #17
 8001aaa:	6210      	str	r0, [r2, #32]
 8001aac:	f8c2 c034 	str.w	ip, [r2, #52]	@ 0x34
 8001ab0:	f8c2 c038 	str.w	ip, [r2, #56]	@ 0x38
 8001ab4:	6950      	ldr	r0, [r2, #20]
 8001ab6:	f040 0001 	orr.w	r0, r0, #1
 8001aba:	6150      	str	r0, [r2, #20]
 8001abc:	6810      	ldr	r0, [r2, #0]
 8001abe:	f040 0001 	orr.w	r0, r0, #1
 8001ac2:	6010      	str	r0, [r2, #0]
 8001ac4:	6c08      	ldr	r0, [r1, #64]	@ 0x40
 8001ac6:	f040 0002 	orr.w	r0, r0, #2
 8001aca:	6408      	str	r0, [r1, #64]	@ 0x40
 8001acc:	6818      	ldr	r0, [r3, #0]
 8001ace:	f420 5040 	bic.w	r0, r0, #12288	@ 0x3000
 8001ad2:	f440 5000 	orr.w	r0, r0, #8192	@ 0x2000
 8001ad6:	6018      	str	r0, [r3, #0]
 8001ad8:	6a18      	ldr	r0, [r3, #32]
 8001ada:	f020 6070 	bic.w	r0, r0, #251658240	@ 0xf000000
 8001ade:	f5a2 6200 	sub.w	r2, r2, #2048	@ 0x800
 8001ae2:	f040 7000 	orr.w	r0, r0, #33554432	@ 0x2000000
 8001ae6:	6218      	str	r0, [r3, #32]
 8001ae8:	2053      	movs	r0, #83	@ 0x53
 8001aea:	f644 631f 	movw	r3, #19999	@ 0x4e1f
 8001aee:	6290      	str	r0, [r2, #40]	@ 0x28
 8001af0:	62d3      	str	r3, [r2, #44]	@ 0x2c
 8001af2:	6990      	ldr	r0, [r2, #24]
 8001af4:	4b14      	ldr	r3, [pc, #80]	@ (8001b48 <Motor_Init+0xf0>)
 8001af6:	f040 0060 	orr.w	r0, r0, #96	@ 0x60
 8001afa:	6190      	str	r0, [r2, #24]
 8001afc:	6a10      	ldr	r0, [r2, #32]
 8001afe:	f040 0001 	orr.w	r0, r0, #1
 8001b02:	6210      	str	r0, [r2, #32]
 8001b04:	6810      	ldr	r0, [r2, #0]
 8001b06:	f040 0001 	orr.w	r0, r0, #1
 8001b0a:	6010      	str	r0, [r2, #0]
 8001b0c:	f8c2 c034 	str.w	ip, [r2, #52]	@ 0x34
 8001b10:	6b0a      	ldr	r2, [r1, #48]	@ 0x30
 8001b12:	f042 0204 	orr.w	r2, r2, #4
 8001b16:	630a      	str	r2, [r1, #48]	@ 0x30
 8001b18:	681a      	ldr	r2, [r3, #0]
 8001b1a:	f022 02ff 	bic.w	r2, r2, #255	@ 0xff
 8001b1e:	601a      	str	r2, [r3, #0]
 8001b20:	681a      	ldr	r2, [r3, #0]
 8001b22:	f042 0255 	orr.w	r2, r2, #85	@ 0x55
 8001b26:	601a      	str	r2, [r3, #0]
 8001b28:	681a      	ldr	r2, [r3, #0]
 8001b2a:	f422 227f 	bic.w	r2, r2, #1044480	@ 0xff000
 8001b2e:	601a      	str	r2, [r3, #0]
 8001b30:	681a      	ldr	r2, [r3, #0]
 8001b32:	f442 22aa 	orr.w	r2, r2, #348160	@ 0x55000
 8001b36:	601a      	str	r2, [r3, #0]
 8001b38:	bd00      	pop	{pc}
 8001b3a:	bf00      	nop
 8001b3c:	40023800 			@ <UNDEFINED> instruction: 40023800
 8001b40:	40020000 			@ <UNDEFINED> instruction: 40020000
 8001b44:	40000c00 			@ <UNDEFINED> instruction: 40000c00
 8001b48:	40020800 			@ <UNDEFINED> instruction: 40020800

08001b4c <Servo_Open_Close>:
 8001b4c:	b510      	push	{r4, lr}
 8001b4e:	4c0e      	ldr	r4, [pc, #56]	@ (8001b88 <Servo_Open_Close+0x3c>)
 8001b50:	480e      	ldr	r0, [pc, #56]	@ (8001b8c <Servo_Open_Close+0x40>)
 8001b52:	f44f 7348 	mov.w	r3, #800	@ 0x320
 8001b56:	6363      	str	r3, [r4, #52]	@ 0x34
 8001b58:	f002 fa66 	bl	8004028 <iprintf>
 8001b5c:	f44f 60fa 	mov.w	r0, #2000	@ 0x7d0
 8001b60:	f000 fbb6 	bl	80022d0 <TIM2_Delay>
 8001b64:	f44f 63fa 	mov.w	r3, #2000	@ 0x7d0
 8001b68:	6363      	str	r3, [r4, #52]	@ 0x34
 8001b6a:	4809      	ldr	r0, [pc, #36]	@ (8001b90 <Servo_Open_Close+0x44>)
 8001b6c:	f002 fa5c 	bl	8004028 <iprintf>
 8001b70:	f44f 70fa 	mov.w	r0, #500	@ 0x1f4
 8001b74:	f000 fbac 	bl	80022d0 <TIM2_Delay>
 8001b78:	2300      	movs	r3, #0
 8001b7a:	6363      	str	r3, [r4, #52]	@ 0x34
 8001b7c:	e8bd 4010 	ldmia.w	sp!, {r4, lr}
 8001b80:	4804      	ldr	r0, [pc, #16]	@ (8001b94 <Servo_Open_Close+0x48>)
 8001b82:	f002 ba51 	b.w	8004028 <iprintf>
 8001b86:	bf00      	nop
 8001b88:	40000400 			@ <UNDEFINED> instruction: 40000400
 8001b8c:	08007f48 			@ <UNDEFINED> instruction: 08007f48
 8001b90:	08007f6c 			@ <UNDEFINED> instruction: 08007f6c
 8001b94:	08007f90 			@ <UNDEFINED> instruction: 08007f90

08001b98 <Stepper_Step>:
 8001b98:	4b12      	ldr	r3, [pc, #72]	@ (8001be4 <Stepper_Step+0x4c>)
 8001b9a:	4242      	negs	r2, r0
 8001b9c:	695b      	ldr	r3, [r3, #20]
 8001b9e:	f002 0203 	and.w	r2, r2, #3
 8001ba2:	f000 0003 	and.w	r0, r0, #3
 8001ba6:	bf58      	it	pl
 8001ba8:	4250      	negpl	r0, r2
 8001baa:	f023 030f 	bic.w	r3, r3, #15
 8001bae:	2803      	cmp	r0, #3
 8001bb0:	d805      	bhi.n	8001bbe <Stepper_Step+0x26>
 8001bb2:	e8df f000 	tbb	[pc, r0]
 8001bb6:	07020c11 	smladeq	r2, r1, ip, r0
 8001bba:	f043 0306 	orr.w	r3, r3, #6
 8001bbe:	4a09      	ldr	r2, [pc, #36]	@ (8001be4 <Stepper_Step+0x4c>)
 8001bc0:	6153      	str	r3, [r2, #20]
 8001bc2:	4770      	bx	lr
 8001bc4:	4a07      	ldr	r2, [pc, #28]	@ (8001be4 <Stepper_Step+0x4c>)
 8001bc6:	f043 030c 	orr.w	r3, r3, #12
 8001bca:	6153      	str	r3, [r2, #20]
 8001bcc:	4770      	bx	lr
 8001bce:	4a05      	ldr	r2, [pc, #20]	@ (8001be4 <Stepper_Step+0x4c>)
 8001bd0:	f043 0303 	orr.w	r3, r3, #3
 8001bd4:	6153      	str	r3, [r2, #20]
 8001bd6:	4770      	bx	lr
 8001bd8:	4a02      	ldr	r2, [pc, #8]	@ (8001be4 <Stepper_Step+0x4c>)
 8001bda:	f043 0309 	orr.w	r3, r3, #9
 8001bde:	6153      	str	r3, [r2, #20]
 8001be0:	4770      	bx	lr
 8001be2:	bf00      	nop
 8001be4:	40020800 			@ <UNDEFINED> instruction: 40020800

08001be8 <Rotate_Next_Slot>:
 8001be8:	b570      	push	{r4, r5, r6, lr}
 8001bea:	4e16      	ldr	r6, [pc, #88]	@ (8001c44 <Rotate_Next_Slot+0x5c>)
 8001bec:	4d16      	ldr	r5, [pc, #88]	@ (8001c48 <Rotate_Next_Slot+0x60>)
 8001bee:	f240 4475 	movw	r4, #1141	@ 0x475
 8001bf2:	6833      	ldr	r3, [r6, #0]
 8001bf4:	696a      	ldr	r2, [r5, #20]
 8001bf6:	4258      	negs	r0, r3
 8001bf8:	f000 0003 	and.w	r0, r0, #3
 8001bfc:	f003 0103 	and.w	r1, r3, #3
 8001c00:	bf58      	it	pl
 8001c02:	4241      	negpl	r1, r0
 8001c04:	f022 020f 	bic.w	r2, r2, #15
 8001c08:	2903      	cmp	r1, #3
 8001c0a:	d805      	bhi.n	8001c18 <Rotate_Next_Slot+0x30>
 8001c0c:	e8df f001 	tbb	[pc, r1]
 8001c10:	02111714 			@ <UNDEFINED> instruction: 02111714
 8001c14:	f042 020c 	orr.w	r2, r2, #12
 8001c18:	616a      	str	r2, [r5, #20]
 8001c1a:	3301      	adds	r3, #1
 8001c1c:	2005      	movs	r0, #5
 8001c1e:	6033      	str	r3, [r6, #0]
 8001c20:	f000 fb56 	bl	80022d0 <TIM2_Delay>
 8001c24:	3c01      	subs	r4, #1
 8001c26:	d1e4      	bne.n	8001bf2 <Rotate_Next_Slot+0xa>
 8001c28:	696b      	ldr	r3, [r5, #20]
 8001c2a:	f023 030f 	bic.w	r3, r3, #15
 8001c2e:	616b      	str	r3, [r5, #20]
 8001c30:	bd70      	pop	{r4, r5, r6, pc}
 8001c32:	f042 0206 	orr.w	r2, r2, #6
 8001c36:	e7ef      	b.n	8001c18 <Rotate_Next_Slot+0x30>
 8001c38:	f042 0209 	orr.w	r2, r2, #9
 8001c3c:	e7ec      	b.n	8001c18 <Rotate_Next_Slot+0x30>
 8001c3e:	f042 0203 	orr.w	r2, r2, #3
 8001c42:	e7e9      	b.n	8001c18 <Rotate_Next_Slot+0x30>
 8001c44:	200001e4 			@ <UNDEFINED> instruction: 200001e4
 8001c48:	40020800 			@ <UNDEFINED> instruction: 40020800

08001c4c <Stepper2_Step>:
 8001c4c:	4242      	negs	r2, r0
 8001c4e:	4b0a      	ldr	r3, [pc, #40]	@ (8001c78 <Stepper2_Step+0x2c>)
 8001c50:	f002 0203 	and.w	r2, r2, #3
 8001c54:	f000 0003 	and.w	r0, r0, #3
 8001c58:	695b      	ldr	r3, [r3, #20]
 8001c5a:	bf58      	it	pl
 8001c5c:	4250      	negpl	r0, r2
 8001c5e:	2803      	cmp	r0, #3
 8001c60:	f423 7370 	bic.w	r3, r3, #960	@ 0x3c0
 8001c64:	d804      	bhi.n	8001c70 <Stepper2_Step+0x24>
 8001c66:	4a05      	ldr	r2, [pc, #20]	@ (8001c7c <Stepper2_Step+0x30>)
 8001c68:	f852 2020 	ldr.w	r2, [r2, r0, lsl #2]
 8001c6c:	ea43 1382 	orr.w	r3, r3, r2, lsl #6
 8001c70:	4a01      	ldr	r2, [pc, #4]	@ (8001c78 <Stepper2_Step+0x2c>)
 8001c72:	6153      	str	r3, [r2, #20]
 8001c74:	4770      	bx	lr
 8001c76:	bf00      	nop
 8001c78:	40020800 			@ <UNDEFINED> instruction: 40020800
 8001c7c:	08007af0 			@ <UNDEFINED> instruction: 08007af0

08001c80 <Supply_Pill>:
 8001c80:	b5f8      	push	{r3, r4, r5, r6, r7, lr}
 8001c82:	4f18      	ldr	r7, [pc, #96]	@ (8001ce4 <Supply_Pill+0x64>)
 8001c84:	4e18      	ldr	r6, [pc, #96]	@ (8001ce8 <Supply_Pill+0x68>)
 8001c86:	4c19      	ldr	r4, [pc, #100]	@ (8001cec <Supply_Pill+0x6c>)
 8001c88:	f240 4575 	movw	r5, #1141	@ 0x475
 8001c8c:	687b      	ldr	r3, [r7, #4]
 8001c8e:	6972      	ldr	r2, [r6, #20]
 8001c90:	4259      	negs	r1, r3
 8001c92:	f001 0103 	and.w	r1, r1, #3
 8001c96:	f103 0e01 	add.w	lr, r3, #1
 8001c9a:	f003 0303 	and.w	r3, r3, #3
 8001c9e:	bf58      	it	pl
 8001ca0:	424b      	negpl	r3, r1
 8001ca2:	2b03      	cmp	r3, #3
 8001ca4:	f04f 0005 	mov.w	r0, #5
 8001ca8:	f422 7270 	bic.w	r2, r2, #960	@ 0x3c0
 8001cac:	d810      	bhi.n	8001cd0 <Supply_Pill+0x50>
 8001cae:	f854 3023 	ldr.w	r3, [r4, r3, lsl #2]
 8001cb2:	f8c7 e004 	str.w	lr, [r7, #4]
 8001cb6:	ea42 1283 	orr.w	r2, r2, r3, lsl #6
 8001cba:	6172      	str	r2, [r6, #20]
 8001cbc:	f000 fb08 	bl	80022d0 <TIM2_Delay>
 8001cc0:	3d01      	subs	r5, #1
 8001cc2:	d1e3      	bne.n	8001c8c <Supply_Pill+0xc>
 8001cc4:	4a08      	ldr	r2, [pc, #32]	@ (8001ce8 <Supply_Pill+0x68>)
 8001cc6:	6953      	ldr	r3, [r2, #20]
 8001cc8:	f423 7370 	bic.w	r3, r3, #960	@ 0x3c0
 8001ccc:	6153      	str	r3, [r2, #20]
 8001cce:	bdf8      	pop	{r3, r4, r5, r6, r7, pc}
 8001cd0:	6172      	str	r2, [r6, #20]
 8001cd2:	2005      	movs	r0, #5
 8001cd4:	f8c7 e004 	str.w	lr, [r7, #4]
 8001cd8:	f000 fafa 	bl	80022d0 <TIM2_Delay>
 8001cdc:	3d01      	subs	r5, #1
 8001cde:	d1d5      	bne.n	8001c8c <Supply_Pill+0xc>
 8001ce0:	e7f0      	b.n	8001cc4 <Supply_Pill+0x44>
 8001ce2:	bf00      	nop
 8001ce4:	200001e4 			@ <UNDEFINED> instruction: 200001e4
 8001ce8:	40020800 			@ <UNDEFINED> instruction: 40020800
 8001cec:	08007af0 			@ <UNDEFINED> instruction: 08007af0

08001cf0 <Motor_Set_Percent>:
 8001cf0:	2864      	cmp	r0, #100	@ 0x64
 8001cf2:	bf28      	it	cs
 8001cf4:	2064      	movcs	r0, #100	@ 0x64
 8001cf6:	4b03      	ldr	r3, [pc, #12]	@ (8001d04 <Motor_Set_Percent+0x14>)
 8001cf8:	2832      	cmp	r0, #50	@ 0x32
 8001cfa:	bf38      	it	cc
 8001cfc:	2032      	movcc	r0, #50	@ 0x32
 8001cfe:	6018      	str	r0, [r3, #0]
 8001d00:	4770      	bx	lr
 8001d02:	bf00      	nop
 8001d04:	20000004 			@ <UNDEFINED> instruction: 20000004

08001d08 <Motor_Get_Percent>:
 8001d08:	4b01      	ldr	r3, [pc, #4]	@ (8001d10 <Motor_Get_Percent+0x8>)
 8001d0a:	6818      	ldr	r0, [r3, #0]
 8001d0c:	4770      	bx	lr
 8001d0e:	bf00      	nop
 8001d10:	20000004 			@ <UNDEFINED> instruction: 20000004

08001d14 <Motor_Get_Dir>:
 8001d14:	4b01      	ldr	r3, [pc, #4]	@ (8001d1c <Motor_Get_Dir+0x8>)
 8001d16:	6898      	ldr	r0, [r3, #8]
 8001d18:	4770      	bx	lr
 8001d1a:	bf00      	nop
 8001d1c:	200001e4 			@ <UNDEFINED> instruction: 200001e4

08001d20 <Motor_Apply_Duty>:
 8001d20:	4a0d      	ldr	r2, [pc, #52]	@ (8001d58 <Motor_Apply_Duty+0x38>)
 8001d22:	4b0e      	ldr	r3, [pc, #56]	@ (8001d5c <Motor_Apply_Duty+0x3c>)
 8001d24:	480e      	ldr	r0, [pc, #56]	@ (8001d60 <Motor_Apply_Duty+0x40>)
 8001d26:	f8d2 c02c 	ldr.w	ip, [r2, #44]	@ 0x2c
 8001d2a:	681b      	ldr	r3, [r3, #0]
 8001d2c:	490d      	ldr	r1, [pc, #52]	@ (8001d64 <Motor_Apply_Duty+0x44>)
 8001d2e:	6880      	ldr	r0, [r0, #8]
 8001d30:	fb0c 3303 	mla	r3, ip, r3, r3
 8001d34:	fba1 1303 	umull	r1, r3, r1, r3
 8001d38:	2801      	cmp	r0, #1
 8001d3a:	ea4f 1353 	mov.w	r3, r3, lsr #5
 8001d3e:	d007      	beq.n	8001d50 <Motor_Apply_Duty+0x30>
 8001d40:	3001      	adds	r0, #1
 8001d42:	bf13      	iteet	ne
 8001d44:	2300      	movne	r3, #0
 8001d46:	2100      	moveq	r1, #0
 8001d48:	6351      	streq	r1, [r2, #52]	@ 0x34
 8001d4a:	6353      	strne	r3, [r2, #52]	@ 0x34
 8001d4c:	6393      	str	r3, [r2, #56]	@ 0x38
 8001d4e:	4770      	bx	lr
 8001d50:	2100      	movs	r1, #0
 8001d52:	6391      	str	r1, [r2, #56]	@ 0x38
 8001d54:	6353      	str	r3, [r2, #52]	@ 0x34
 8001d56:	4770      	bx	lr
 8001d58:	40000c00 			@ <UNDEFINED> instruction: 40000c00
 8001d5c:	20000004 			@ <UNDEFINED> instruction: 20000004
 8001d60:	200001e4 			@ <UNDEFINED> instruction: 200001e4
 8001d64:	51eb851f 			@ <UNDEFINED> instruction: 51eb851f

08001d68 <Stop>:
 8001d68:	4a03      	ldr	r2, [pc, #12]	@ (8001d78 <Stop+0x10>)
 8001d6a:	4904      	ldr	r1, [pc, #16]	@ (8001d7c <Stop+0x14>)
 8001d6c:	2300      	movs	r3, #0
 8001d6e:	6353      	str	r3, [r2, #52]	@ 0x34
 8001d70:	608b      	str	r3, [r1, #8]
 8001d72:	6393      	str	r3, [r2, #56]	@ 0x38
 8001d74:	4770      	bx	lr
 8001d76:	bf00      	nop
 8001d78:	40000c00 			@ <UNDEFINED> instruction: 40000c00
 8001d7c:	200001e4 			@ <UNDEFINED> instruction: 200001e4

08001d80 <Move_CW>:
 8001d80:	b082      	sub	sp, #8
 8001d82:	4a10      	ldr	r2, [pc, #64]	@ (8001dc4 <Move_CW+0x44>)
 8001d84:	2300      	movs	r3, #0
 8001d86:	6393      	str	r3, [r2, #56]	@ 0x38
 8001d88:	9301      	str	r3, [sp, #4]
 8001d8a:	9b01      	ldr	r3, [sp, #4]
 8001d8c:	2b63      	cmp	r3, #99	@ 0x63
 8001d8e:	dc05      	bgt.n	8001d9c <Move_CW+0x1c>
 8001d90:	9b01      	ldr	r3, [sp, #4]
 8001d92:	3301      	adds	r3, #1
 8001d94:	9301      	str	r3, [sp, #4]
 8001d96:	9b01      	ldr	r3, [sp, #4]
 8001d98:	2b63      	cmp	r3, #99	@ 0x63
 8001d9a:	ddf9      	ble.n	8001d90 <Move_CW+0x10>
 8001d9c:	4a09      	ldr	r2, [pc, #36]	@ (8001dc4 <Move_CW+0x44>)
 8001d9e:	4b0a      	ldr	r3, [pc, #40]	@ (8001dc8 <Move_CW+0x48>)
 8001da0:	6ad0      	ldr	r0, [r2, #44]	@ 0x2c
 8001da2:	681b      	ldr	r3, [r3, #0]
 8001da4:	4909      	ldr	r1, [pc, #36]	@ (8001dcc <Move_CW+0x4c>)
 8001da6:	fb00 3303 	mla	r3, r0, r3, r3
 8001daa:	fba1 1303 	umull	r1, r3, r1, r3
 8001dae:	4808      	ldr	r0, [pc, #32]	@ (8001dd0 <Move_CW+0x50>)
 8001db0:	2101      	movs	r1, #1
 8001db2:	095b      	lsrs	r3, r3, #5
 8001db4:	f04f 0c00 	mov.w	ip, #0
 8001db8:	f8c2 c038 	str.w	ip, [r2, #56]	@ 0x38
 8001dbc:	6081      	str	r1, [r0, #8]
 8001dbe:	6353      	str	r3, [r2, #52]	@ 0x34
 8001dc0:	b002      	add	sp, #8
 8001dc2:	4770      	bx	lr
 8001dc4:	40000c00 			@ <UNDEFINED> instruction: 40000c00
 8001dc8:	20000004 			@ <UNDEFINED> instruction: 20000004
 8001dcc:	51eb851f 			@ <UNDEFINED> instruction: 51eb851f
 8001dd0:	200001e4 			@ <UNDEFINED> instruction: 200001e4

08001dd4 <Move_CCW>:
 8001dd4:	b082      	sub	sp, #8
 8001dd6:	4a11      	ldr	r2, [pc, #68]	@ (8001e1c <Move_CCW+0x48>)
 8001dd8:	2300      	movs	r3, #0
 8001dda:	6353      	str	r3, [r2, #52]	@ 0x34
 8001ddc:	9301      	str	r3, [sp, #4]
 8001dde:	9b01      	ldr	r3, [sp, #4]
 8001de0:	2b63      	cmp	r3, #99	@ 0x63
 8001de2:	dc05      	bgt.n	8001df0 <Move_CCW+0x1c>
 8001de4:	9b01      	ldr	r3, [sp, #4]
 8001de6:	3301      	adds	r3, #1
 8001de8:	9301      	str	r3, [sp, #4]
 8001dea:	9b01      	ldr	r3, [sp, #4]
 8001dec:	2b63      	cmp	r3, #99	@ 0x63
 8001dee:	ddf9      	ble.n	8001de4 <Move_CCW+0x10>
 8001df0:	4a0a      	ldr	r2, [pc, #40]	@ (8001e1c <Move_CCW+0x48>)
 8001df2:	4b0b      	ldr	r3, [pc, #44]	@ (8001e20 <Move_CCW+0x4c>)
 8001df4:	6ad0      	ldr	r0, [r2, #44]	@ 0x2c
 8001df6:	681b      	ldr	r3, [r3, #0]
 8001df8:	490a      	ldr	r1, [pc, #40]	@ (8001e24 <Move_CCW+0x50>)
 8001dfa:	fb00 3303 	mla	r3, r0, r3, r3
 8001dfe:	fba1 1303 	umull	r1, r3, r1, r3
 8001e02:	4809      	ldr	r0, [pc, #36]	@ (8001e28 <Move_CCW+0x54>)
 8001e04:	f04f 31ff 	mov.w	r1, #4294967295
 8001e08:	095b      	lsrs	r3, r3, #5
 8001e0a:	f04f 0c00 	mov.w	ip, #0
 8001e0e:	f8c2 c034 	str.w	ip, [r2, #52]	@ 0x34
 8001e12:	6081      	str	r1, [r0, #8]
 8001e14:	6393      	str	r3, [r2, #56]	@ 0x38
 8001e16:	b002      	add	sp, #8
 8001e18:	4770      	bx	lr
 8001e1a:	bf00      	nop
 8001e1c:	40000c00 			@ <UNDEFINED> instruction: 40000c00
 8001e20:	20000004 			@ <UNDEFINED> instruction: 20000004
 8001e24:	51eb851f 			@ <UNDEFINED> instruction: 51eb851f
 8001e28:	200001e4 			@ <UNDEFINED> instruction: 200001e4

08001e2c <_sbrk>:
 8001e2c:	490b      	ldr	r1, [pc, #44]	@ (8001e5c <_sbrk+0x30>)
 8001e2e:	4b0c      	ldr	r3, [pc, #48]	@ (8001e60 <_sbrk+0x34>)
 8001e30:	680a      	ldr	r2, [r1, #0]
 8001e32:	f023 0307 	bic.w	r3, r3, #7
 8001e36:	b162      	cbz	r2, 8001e52 <_sbrk+0x26>
 8001e38:	4694      	mov	ip, r2
 8001e3a:	3007      	adds	r0, #7
 8001e3c:	4460      	add	r0, ip
 8001e3e:	f020 0007 	bic.w	r0, r0, #7
 8001e42:	f503 5380 	add.w	r3, r3, #4096	@ 0x1000
 8001e46:	4298      	cmp	r0, r3
 8001e48:	bf2c      	ite	cs
 8001e4a:	2200      	movcs	r2, #0
 8001e4c:	6008      	strcc	r0, [r1, #0]
 8001e4e:	4610      	mov	r0, r2
 8001e50:	4770      	bx	lr
 8001e52:	461a      	mov	r2, r3
 8001e54:	600b      	str	r3, [r1, #0]
 8001e56:	469c      	mov	ip, r3
 8001e58:	e7ef      	b.n	8001e3a <_sbrk+0xe>
 8001e5a:	bf00      	nop
 8001e5c:	200001f0 	strdcs	r0, [r0], -r0	@ <UNPREDICTABLE>
 8001e60:	20000367 			@ <UNDEFINED> instruction: 20000367

08001e64 <_write>:
 8001e64:	b570      	push	{r4, r5, r6, lr}
 8001e66:	1e16      	subs	r6, r2, #0
 8001e68:	dd07      	ble.n	8001e7a <_write+0x16>
 8001e6a:	460c      	mov	r4, r1
 8001e6c:	198d      	adds	r5, r1, r6
 8001e6e:	f814 0b01 	ldrb.w	r0, [r4], #1
 8001e72:	f000 fbc3 	bl	80025fc <Uart2_Send_Byte>
 8001e76:	42a5      	cmp	r5, r4
 8001e78:	d1f9      	bne.n	8001e6e <_write+0xa>
 8001e7a:	4630      	mov	r0, r6
 8001e7c:	bd70      	pop	{r4, r5, r6, pc}
 8001e7e:	bf00      	nop

08001e80 <_read>:
 8001e80:	2000      	movs	r0, #0
 8001e82:	4770      	bx	lr

08001e84 <_lseek>:
 8001e84:	2000      	movs	r0, #0
 8001e86:	4770      	bx	lr

08001e88 <_close>:
 8001e88:	f04f 30ff 	mov.w	r0, #4294967295
 8001e8c:	4770      	bx	lr
 8001e8e:	bf00      	nop

08001e90 <_fstat>:
 8001e90:	f44f 5300 	mov.w	r3, #8192	@ 0x2000
 8001e94:	604b      	str	r3, [r1, #4]
 8001e96:	2000      	movs	r0, #0
 8001e98:	4770      	bx	lr
 8001e9a:	bf00      	nop

08001e9c <_isatty>:
 8001e9c:	2001      	movs	r0, #1
 8001e9e:	4770      	bx	lr

08001ea0 <_getpid>:
 8001ea0:	2001      	movs	r0, #1
 8001ea2:	4770      	bx	lr

08001ea4 <_kill>:
 8001ea4:	b508      	push	{r3, lr}
 8001ea6:	f002 fb2f 	bl	8004508 <__errno>
 8001eaa:	2316      	movs	r3, #22
 8001eac:	6003      	str	r3, [r0, #0]
 8001eae:	f04f 30ff 	mov.w	r0, #4294967295
 8001eb2:	bd08      	pop	{r3, pc}

08001eb4 <Status_LED_Init>:
 8001eb4:	4941      	ldr	r1, [pc, #260]	@ (8001fbc <Status_LED_Init+0x108>)
 8001eb6:	4b42      	ldr	r3, [pc, #264]	@ (8001fc0 <Status_LED_Init+0x10c>)
 8001eb8:	6b08      	ldr	r0, [r1, #48]	@ 0x30
 8001eba:	4a42      	ldr	r2, [pc, #264]	@ (8001fc4 <Status_LED_Init+0x110>)
 8001ebc:	f040 0001 	orr.w	r0, r0, #1
 8001ec0:	6308      	str	r0, [r1, #48]	@ 0x30
 8001ec2:	6b08      	ldr	r0, [r1, #48]	@ 0x30
 8001ec4:	f040 0002 	orr.w	r0, r0, #2
 8001ec8:	6308      	str	r0, [r1, #48]	@ 0x30
 8001eca:	6819      	ldr	r1, [r3, #0]
 8001ecc:	f021 7140 	bic.w	r1, r1, #50331648	@ 0x3000000
 8001ed0:	f041 7180 	orr.w	r1, r1, #16777216	@ 0x1000000
 8001ed4:	6019      	str	r1, [r3, #0]
 8001ed6:	6859      	ldr	r1, [r3, #4]
 8001ed8:	f421 5180 	bic.w	r1, r1, #4096	@ 0x1000
 8001edc:	6059      	str	r1, [r3, #4]
 8001ede:	6899      	ldr	r1, [r3, #8]
 8001ee0:	f021 7140 	bic.w	r1, r1, #50331648	@ 0x3000000
 8001ee4:	f041 7100 	orr.w	r1, r1, #33554432	@ 0x2000000
 8001ee8:	6099      	str	r1, [r3, #8]
 8001eea:	6959      	ldr	r1, [r3, #20]
 8001eec:	f421 5180 	bic.w	r1, r1, #4096	@ 0x1000
 8001ef0:	6159      	str	r1, [r3, #20]
 8001ef2:	6819      	ldr	r1, [r3, #0]
 8001ef4:	f021 6140 	bic.w	r1, r1, #201326592	@ 0xc000000
 8001ef8:	f041 6180 	orr.w	r1, r1, #67108864	@ 0x4000000
 8001efc:	6019      	str	r1, [r3, #0]
 8001efe:	6859      	ldr	r1, [r3, #4]
 8001f00:	f421 5100 	bic.w	r1, r1, #8192	@ 0x2000
 8001f04:	6059      	str	r1, [r3, #4]
 8001f06:	6899      	ldr	r1, [r3, #8]
 8001f08:	f021 6140 	bic.w	r1, r1, #201326592	@ 0xc000000
 8001f0c:	f041 6100 	orr.w	r1, r1, #134217728	@ 0x8000000
 8001f10:	6099      	str	r1, [r3, #8]
 8001f12:	6959      	ldr	r1, [r3, #20]
 8001f14:	f421 5100 	bic.w	r1, r1, #8192	@ 0x2000
 8001f18:	6159      	str	r1, [r3, #20]
 8001f1a:	6819      	ldr	r1, [r3, #0]
 8001f1c:	f021 5140 	bic.w	r1, r1, #805306368	@ 0x30000000
 8001f20:	f041 5180 	orr.w	r1, r1, #268435456	@ 0x10000000
 8001f24:	6019      	str	r1, [r3, #0]
 8001f26:	6859      	ldr	r1, [r3, #4]
 8001f28:	f421 4180 	bic.w	r1, r1, #16384	@ 0x4000
 8001f2c:	6059      	str	r1, [r3, #4]
 8001f2e:	6899      	ldr	r1, [r3, #8]
 8001f30:	f021 5140 	bic.w	r1, r1, #805306368	@ 0x30000000
 8001f34:	f041 5100 	orr.w	r1, r1, #536870912	@ 0x20000000
 8001f38:	6099      	str	r1, [r3, #8]
 8001f3a:	6959      	ldr	r1, [r3, #20]
 8001f3c:	f421 4180 	bic.w	r1, r1, #16384	@ 0x4000
 8001f40:	6159      	str	r1, [r3, #20]
 8001f42:	6819      	ldr	r1, [r3, #0]
 8001f44:	f021 4140 	bic.w	r1, r1, #3221225472	@ 0xc0000000
 8001f48:	f041 4180 	orr.w	r1, r1, #1073741824	@ 0x40000000
 8001f4c:	6019      	str	r1, [r3, #0]
 8001f4e:	6859      	ldr	r1, [r3, #4]
 8001f50:	f421 4100 	bic.w	r1, r1, #32768	@ 0x8000
 8001f54:	6059      	str	r1, [r3, #4]
 8001f56:	6899      	ldr	r1, [r3, #8]
 8001f58:	f021 4140 	bic.w	r1, r1, #3221225472	@ 0xc0000000
 8001f5c:	f041 4100 	orr.w	r1, r1, #2147483648	@ 0x80000000
 8001f60:	6099      	str	r1, [r3, #8]
 8001f62:	6959      	ldr	r1, [r3, #20]
 8001f64:	f421 4100 	bic.w	r1, r1, #32768	@ 0x8000
 8001f68:	6159      	str	r1, [r3, #20]
 8001f6a:	6813      	ldr	r3, [r2, #0]
 8001f6c:	f423 4340 	bic.w	r3, r3, #49152	@ 0xc000
 8001f70:	f443 4380 	orr.w	r3, r3, #16384	@ 0x4000
 8001f74:	6013      	str	r3, [r2, #0]
 8001f76:	6853      	ldr	r3, [r2, #4]
 8001f78:	f023 0380 	bic.w	r3, r3, #128	@ 0x80
 8001f7c:	6053      	str	r3, [r2, #4]
 8001f7e:	6893      	ldr	r3, [r2, #8]
 8001f80:	f423 4340 	bic.w	r3, r3, #49152	@ 0xc000
 8001f84:	f443 4300 	orr.w	r3, r3, #32768	@ 0x8000
 8001f88:	6093      	str	r3, [r2, #8]
 8001f8a:	6953      	ldr	r3, [r2, #20]
 8001f8c:	f023 0380 	bic.w	r3, r3, #128	@ 0x80
 8001f90:	6153      	str	r3, [r2, #20]
 8001f92:	6813      	ldr	r3, [r2, #0]
 8001f94:	f423 3340 	bic.w	r3, r3, #196608	@ 0x30000
 8001f98:	f443 3380 	orr.w	r3, r3, #65536	@ 0x10000
 8001f9c:	6013      	str	r3, [r2, #0]
 8001f9e:	6853      	ldr	r3, [r2, #4]
 8001fa0:	f423 7380 	bic.w	r3, r3, #256	@ 0x100
 8001fa4:	6053      	str	r3, [r2, #4]
 8001fa6:	6893      	ldr	r3, [r2, #8]
 8001fa8:	f423 3340 	bic.w	r3, r3, #196608	@ 0x30000
 8001fac:	f443 3300 	orr.w	r3, r3, #131072	@ 0x20000
 8001fb0:	6093      	str	r3, [r2, #8]
 8001fb2:	6953      	ldr	r3, [r2, #20]
 8001fb4:	f423 7380 	bic.w	r3, r3, #256	@ 0x100
 8001fb8:	6153      	str	r3, [r2, #20]
 8001fba:	4770      	bx	lr
 8001fbc:	40023800 			@ <UNDEFINED> instruction: 40023800
 8001fc0:	40020400 			@ <UNDEFINED> instruction: 40020400
 8001fc4:	40020000 			@ <UNDEFINED> instruction: 40020000

08001fc8 <Status_LED_All_Off>:
 8001fc8:	4b0d      	ldr	r3, [pc, #52]	@ (8002000 <Status_LED_All_Off+0x38>)
 8001fca:	4a0e      	ldr	r2, [pc, #56]	@ (8002004 <Status_LED_All_Off+0x3c>)
 8001fcc:	6959      	ldr	r1, [r3, #20]
 8001fce:	f421 5180 	bic.w	r1, r1, #4096	@ 0x1000
 8001fd2:	6159      	str	r1, [r3, #20]
 8001fd4:	6959      	ldr	r1, [r3, #20]
 8001fd6:	f421 5100 	bic.w	r1, r1, #8192	@ 0x2000
 8001fda:	6159      	str	r1, [r3, #20]
 8001fdc:	6959      	ldr	r1, [r3, #20]
 8001fde:	f421 4180 	bic.w	r1, r1, #16384	@ 0x4000
 8001fe2:	6159      	str	r1, [r3, #20]
 8001fe4:	6959      	ldr	r1, [r3, #20]
 8001fe6:	f421 4100 	bic.w	r1, r1, #32768	@ 0x8000
 8001fea:	6159      	str	r1, [r3, #20]
 8001fec:	6953      	ldr	r3, [r2, #20]
 8001fee:	f023 0380 	bic.w	r3, r3, #128	@ 0x80
 8001ff2:	6153      	str	r3, [r2, #20]
 8001ff4:	6953      	ldr	r3, [r2, #20]
 8001ff6:	f423 7380 	bic.w	r3, r3, #256	@ 0x100
 8001ffa:	6153      	str	r3, [r2, #20]
 8001ffc:	4770      	bx	lr
 8001ffe:	bf00      	nop
 8002000:	40020400 			@ <UNDEFINED> instruction: 40020400
 8002004:	40020000 			@ <UNDEFINED> instruction: 40020000

08002008 <Status_LED_Red>:
 8002008:	4b11      	ldr	r3, [pc, #68]	@ (8002050 <Status_LED_Red+0x48>)
 800200a:	4a12      	ldr	r2, [pc, #72]	@ (8002054 <Status_LED_Red+0x4c>)
 800200c:	6959      	ldr	r1, [r3, #20]
 800200e:	f421 5180 	bic.w	r1, r1, #4096	@ 0x1000
 8002012:	6159      	str	r1, [r3, #20]
 8002014:	6959      	ldr	r1, [r3, #20]
 8002016:	f421 5100 	bic.w	r1, r1, #8192	@ 0x2000
 800201a:	6159      	str	r1, [r3, #20]
 800201c:	6959      	ldr	r1, [r3, #20]
 800201e:	f421 4180 	bic.w	r1, r1, #16384	@ 0x4000
 8002022:	6159      	str	r1, [r3, #20]
 8002024:	6959      	ldr	r1, [r3, #20]
 8002026:	f421 4100 	bic.w	r1, r1, #32768	@ 0x8000
 800202a:	6159      	str	r1, [r3, #20]
 800202c:	6951      	ldr	r1, [r2, #20]
 800202e:	f021 0180 	bic.w	r1, r1, #128	@ 0x80
 8002032:	6151      	str	r1, [r2, #20]
 8002034:	6951      	ldr	r1, [r2, #20]
 8002036:	f421 7180 	bic.w	r1, r1, #256	@ 0x100
 800203a:	6151      	str	r1, [r2, #20]
 800203c:	695a      	ldr	r2, [r3, #20]
 800203e:	f442 5280 	orr.w	r2, r2, #4096	@ 0x1000
 8002042:	615a      	str	r2, [r3, #20]
 8002044:	695a      	ldr	r2, [r3, #20]
 8002046:	f442 5200 	orr.w	r2, r2, #8192	@ 0x2000
 800204a:	615a      	str	r2, [r3, #20]
 800204c:	4770      	bx	lr
 800204e:	bf00      	nop
 8002050:	40020400 			@ <UNDEFINED> instruction: 40020400
 8002054:	40020000 			@ <UNDEFINED> instruction: 40020000

08002058 <Status_LED_Yellow>:
 8002058:	4b11      	ldr	r3, [pc, #68]	@ (80020a0 <Status_LED_Yellow+0x48>)
 800205a:	4a12      	ldr	r2, [pc, #72]	@ (80020a4 <Status_LED_Yellow+0x4c>)
 800205c:	6959      	ldr	r1, [r3, #20]
 800205e:	f421 5180 	bic.w	r1, r1, #4096	@ 0x1000
 8002062:	6159      	str	r1, [r3, #20]
 8002064:	6959      	ldr	r1, [r3, #20]
 8002066:	f421 5100 	bic.w	r1, r1, #8192	@ 0x2000
 800206a:	6159      	str	r1, [r3, #20]
 800206c:	6959      	ldr	r1, [r3, #20]
 800206e:	f421 4180 	bic.w	r1, r1, #16384	@ 0x4000
 8002072:	6159      	str	r1, [r3, #20]
 8002074:	6959      	ldr	r1, [r3, #20]
 8002076:	f421 4100 	bic.w	r1, r1, #32768	@ 0x8000
 800207a:	6159      	str	r1, [r3, #20]
 800207c:	6951      	ldr	r1, [r2, #20]
 800207e:	f021 0180 	bic.w	r1, r1, #128	@ 0x80
 8002082:	6151      	str	r1, [r2, #20]
 8002084:	6951      	ldr	r1, [r2, #20]
 8002086:	f421 7180 	bic.w	r1, r1, #256	@ 0x100
 800208a:	6151      	str	r1, [r2, #20]
 800208c:	695a      	ldr	r2, [r3, #20]
 800208e:	f442 4280 	orr.w	r2, r2, #16384	@ 0x4000
 8002092:	615a      	str	r2, [r3, #20]
 8002094:	695a      	ldr	r2, [r3, #20]
 8002096:	f442 4200 	orr.w	r2, r2, #32768	@ 0x8000
 800209a:	615a      	str	r2, [r3, #20]
 800209c:	4770      	bx	lr
 800209e:	bf00      	nop
 80020a0:	40020400 			@ <UNDEFINED> instruction: 40020400
 80020a4:	40020000 			@ <UNDEFINED> instruction: 40020000

080020a8 <Status_LED_Green>:
 80020a8:	4a11      	ldr	r2, [pc, #68]	@ (80020f0 <Status_LED_Green+0x48>)
 80020aa:	4b12      	ldr	r3, [pc, #72]	@ (80020f4 <Status_LED_Green+0x4c>)
 80020ac:	6951      	ldr	r1, [r2, #20]
 80020ae:	f421 5180 	bic.w	r1, r1, #4096	@ 0x1000
 80020b2:	6151      	str	r1, [r2, #20]
 80020b4:	6951      	ldr	r1, [r2, #20]
 80020b6:	f421 5100 	bic.w	r1, r1, #8192	@ 0x2000
 80020ba:	6151      	str	r1, [r2, #20]
 80020bc:	6951      	ldr	r1, [r2, #20]
 80020be:	f421 4180 	bic.w	r1, r1, #16384	@ 0x4000
 80020c2:	6151      	str	r1, [r2, #20]
 80020c4:	6951      	ldr	r1, [r2, #20]
 80020c6:	f421 4100 	bic.w	r1, r1, #32768	@ 0x8000
 80020ca:	6151      	str	r1, [r2, #20]
 80020cc:	695a      	ldr	r2, [r3, #20]
 80020ce:	f022 0280 	bic.w	r2, r2, #128	@ 0x80
 80020d2:	615a      	str	r2, [r3, #20]
 80020d4:	695a      	ldr	r2, [r3, #20]
 80020d6:	f422 7280 	bic.w	r2, r2, #256	@ 0x100
 80020da:	615a      	str	r2, [r3, #20]
 80020dc:	695a      	ldr	r2, [r3, #20]
 80020de:	f042 0280 	orr.w	r2, r2, #128	@ 0x80
 80020e2:	615a      	str	r2, [r3, #20]
 80020e4:	695a      	ldr	r2, [r3, #20]
 80020e6:	f442 7280 	orr.w	r2, r2, #256	@ 0x100
 80020ea:	615a      	str	r2, [r3, #20]
 80020ec:	4770      	bx	lr
 80020ee:	bf00      	nop
 80020f0:	40020400 			@ <UNDEFINED> instruction: 40020400
 80020f4:	40020000 			@ <UNDEFINED> instruction: 40020000

080020f8 <SystemInit>:
 80020f8:	4a03      	ldr	r2, [pc, #12]	@ (8002108 <SystemInit+0x10>)
 80020fa:	f8d2 3088 	ldr.w	r3, [r2, #136]	@ 0x88
 80020fe:	f443 0370 	orr.w	r3, r3, #15728640	@ 0xf00000
 8002102:	f8c2 3088 	str.w	r3, [r2, #136]	@ 0x88
 8002106:	4770      	bx	lr
 8002108:	e000ed00 			@ <UNDEFINED> instruction: e000ed00

0800210c <SystemCoreClockUpdate>:
 800210c:	4a16      	ldr	r2, [pc, #88]	@ (8002168 <SystemCoreClockUpdate+0x5c>)
 800210e:	6893      	ldr	r3, [r2, #8]
 8002110:	f003 030c 	and.w	r3, r3, #12
 8002114:	2b04      	cmp	r3, #4
 8002116:	d025      	beq.n	8002164 <SystemCoreClockUpdate+0x58>
 8002118:	2b08      	cmp	r3, #8
 800211a:	d00a      	beq.n	8002132 <SystemCoreClockUpdate+0x26>
 800211c:	4b13      	ldr	r3, [pc, #76]	@ (800216c <SystemCoreClockUpdate+0x60>)
 800211e:	4a12      	ldr	r2, [pc, #72]	@ (8002168 <SystemCoreClockUpdate+0x5c>)
 8002120:	4813      	ldr	r0, [pc, #76]	@ (8002170 <SystemCoreClockUpdate+0x64>)
 8002122:	6892      	ldr	r2, [r2, #8]
 8002124:	4913      	ldr	r1, [pc, #76]	@ (8002174 <SystemCoreClockUpdate+0x68>)
 8002126:	f3c2 1203 	ubfx	r2, r2, #4, #4
 800212a:	5c82      	ldrb	r2, [r0, r2]
 800212c:	40d3      	lsrs	r3, r2
 800212e:	600b      	str	r3, [r1, #0]
 8002130:	4770      	bx	lr
 8002132:	6853      	ldr	r3, [r2, #4]
 8002134:	6851      	ldr	r1, [r2, #4]
 8002136:	f413 0f80 	tst.w	r3, #4194304	@ 0x400000
 800213a:	6853      	ldr	r3, [r2, #4]
 800213c:	bf14      	ite	ne
 800213e:	4a0e      	ldrne	r2, [pc, #56]	@ (8002178 <SystemCoreClockUpdate+0x6c>)
 8002140:	4a0a      	ldreq	r2, [pc, #40]	@ (800216c <SystemCoreClockUpdate+0x60>)
 8002142:	f3c3 1388 	ubfx	r3, r3, #6, #9
 8002146:	f001 013f 	and.w	r1, r1, #63	@ 0x3f
 800214a:	fbb2 f2f1 	udiv	r2, r2, r1
 800214e:	fb02 f303 	mul.w	r3, r2, r3
 8002152:	4a05      	ldr	r2, [pc, #20]	@ (8002168 <SystemCoreClockUpdate+0x5c>)
 8002154:	6852      	ldr	r2, [r2, #4]
 8002156:	f3c2 4201 	ubfx	r2, r2, #16, #2
 800215a:	3201      	adds	r2, #1
 800215c:	0052      	lsls	r2, r2, #1
 800215e:	fbb3 f3f2 	udiv	r3, r3, r2
 8002162:	e7dc      	b.n	800211e <SystemCoreClockUpdate+0x12>
 8002164:	4b04      	ldr	r3, [pc, #16]	@ (8002178 <SystemCoreClockUpdate+0x6c>)
 8002166:	e7da      	b.n	800211e <SystemCoreClockUpdate+0x12>
 8002168:	40023800 			@ <UNDEFINED> instruction: 40023800
 800216c:	00f42400 			@ <UNDEFINED> instruction: 00f42400
 8002170:	08007b00 			@ <UNDEFINED> instruction: 08007b00
 8002174:	20000008 			@ <UNDEFINED> instruction: 20000008
 8002178:	017d7840 			@ <UNDEFINED> instruction: 017d7840
 800217c:	00000000 			@ <UNDEFINED> instruction: 00000000

08002180 <SysTick_Run>:
 8002180:	b538      	push	{r3, r4, r5, lr}
 8002182:	f04f 24e0 	mov.w	r4, #3758153728	@ 0xe000e000
 8002186:	2500      	movs	r5, #0
 8002188:	6125      	str	r5, [r4, #16]
 800218a:	f000 ff6f 	bl	800306c <__aeabi_ui2d>
 800218e:	a30b      	add	r3, pc, #44	@ (adr r3, 80021bc <SysTick_Run+0x3c>)
 8002190:	e9d3 2300 	ldrd	r2, r3, [r3]
 8002194:	f000 ffe4 	bl	8003160 <__aeabi_dmul>
 8002198:	4b07      	ldr	r3, [pc, #28]	@ (80021b8 <SysTick_Run+0x38>)
 800219a:	2200      	movs	r2, #0
 800219c:	f000 fe2a 	bl	8002df4 <__adddf3>
 80021a0:	f001 fab6 	bl	8003710 <__aeabi_d2uiz>
 80021a4:	6160      	str	r0, [r4, #20]
 80021a6:	61a5      	str	r5, [r4, #24]
 80021a8:	6923      	ldr	r3, [r4, #16]
 80021aa:	f043 0301 	orr.w	r3, r3, #1
 80021ae:	6123      	str	r3, [r4, #16]
 80021b0:	bd38      	pop	{r3, r4, r5, pc}
 80021b2:	bf00      	nop
 80021b4:	f3af 8000 	nop.w
 80021b8:	3fe00000 			@ <UNDEFINED> instruction: 3fe00000
 80021bc:	00000000 			@ <UNDEFINED> instruction: 00000000
 80021c0:	40c77000 			@ <UNDEFINED> instruction: 40c77000

080021c4 <SysTick_Check_Timeout>:
 80021c4:	f04f 23e0 	mov.w	r3, #3758153728	@ 0xe000e000
 80021c8:	6918      	ldr	r0, [r3, #16]
 80021ca:	f3c0 4000 	ubfx	r0, r0, #16, #1
 80021ce:	4770      	bx	lr

080021d0 <SysTick_Get_Time>:
 80021d0:	f04f 23e0 	mov.w	r3, #3758153728	@ 0xe000e000
 80021d4:	6998      	ldr	r0, [r3, #24]
 80021d6:	4770      	bx	lr

080021d8 <SysTick_Get_Load_Time>:
 80021d8:	f04f 23e0 	mov.w	r3, #3758153728	@ 0xe000e000
 80021dc:	6958      	ldr	r0, [r3, #20]
 80021de:	4770      	bx	lr

080021e0 <SysTick_Stop>:
 80021e0:	f04f 23e0 	mov.w	r3, #3758153728	@ 0xe000e000
 80021e4:	2200      	movs	r2, #0
 80021e6:	611a      	str	r2, [r3, #16]
 80021e8:	4770      	bx	lr
 80021ea:	bf00      	nop

080021ec <Delay_ms>:
 80021ec:	f5b0 7ffa 	cmp.w	r0, #500	@ 0x1f4
 80021f0:	b538      	push	{r3, r4, r5, lr}
 80021f2:	d931      	bls.n	8002258 <Delay_ms+0x6c>
 80021f4:	4c1e      	ldr	r4, [pc, #120]	@ (8002270 <Delay_ms+0x84>)
 80021f6:	f04f 22e0 	mov.w	r2, #3758153728	@ 0xe000e000
 80021fa:	2100      	movs	r1, #0
 80021fc:	6111      	str	r1, [r2, #16]
 80021fe:	6154      	str	r4, [r2, #20]
 8002200:	6191      	str	r1, [r2, #24]
 8002202:	6913      	ldr	r3, [r2, #16]
 8002204:	f043 0301 	orr.w	r3, r3, #1
 8002208:	6113      	str	r3, [r2, #16]
 800220a:	6913      	ldr	r3, [r2, #16]
 800220c:	03dd      	lsls	r5, r3, #15
 800220e:	d5fc      	bpl.n	800220a <Delay_ms+0x1e>
 8002210:	f5a0 70fa 	sub.w	r0, r0, #500	@ 0x1f4
 8002214:	f5b0 7ffa 	cmp.w	r0, #500	@ 0x1f4
 8002218:	d8f0      	bhi.n	80021fc <Delay_ms+0x10>
 800221a:	f04f 24e0 	mov.w	r4, #3758153728	@ 0xe000e000
 800221e:	2500      	movs	r5, #0
 8002220:	6125      	str	r5, [r4, #16]
 8002222:	f000 ff23 	bl	800306c <__aeabi_ui2d>
 8002226:	a310      	add	r3, pc, #64	@ (adr r3, 8002268 <Delay_ms+0x7c>)
 8002228:	e9d3 2300 	ldrd	r2, r3, [r3]
 800222c:	f000 ff98 	bl	8003160 <__aeabi_dmul>
 8002230:	4b10      	ldr	r3, [pc, #64]	@ (8002274 <Delay_ms+0x88>)
 8002232:	2200      	movs	r2, #0
 8002234:	f000 fdde 	bl	8002df4 <__adddf3>
 8002238:	f001 fa6a 	bl	8003710 <__aeabi_d2uiz>
 800223c:	6160      	str	r0, [r4, #20]
 800223e:	61a5      	str	r5, [r4, #24]
 8002240:	6923      	ldr	r3, [r4, #16]
 8002242:	f043 0301 	orr.w	r3, r3, #1
 8002246:	6123      	str	r3, [r4, #16]
 8002248:	6923      	ldr	r3, [r4, #16]
 800224a:	03db      	lsls	r3, r3, #15
 800224c:	d5fc      	bpl.n	8002248 <Delay_ms+0x5c>
 800224e:	f04f 23e0 	mov.w	r3, #3758153728	@ 0xe000e000
 8002252:	2200      	movs	r2, #0
 8002254:	611a      	str	r2, [r3, #16]
 8002256:	bd38      	pop	{r3, r4, r5, pc}
 8002258:	2800      	cmp	r0, #0
 800225a:	d1de      	bne.n	800221a <Delay_ms+0x2e>
 800225c:	f04f 23e0 	mov.w	r3, #3758153728	@ 0xe000e000
 8002260:	2200      	movs	r2, #0
 8002262:	611a      	str	r2, [r3, #16]
 8002264:	bd38      	pop	{r3, r4, r5, pc}
 8002266:	bf00      	nop
 8002268:	00000000 			@ <UNDEFINED> instruction: 00000000
 800226c:	40c77000 			@ <UNDEFINED> instruction: 40c77000
 8002270:	005b8d80 			@ <UNDEFINED> instruction: 005b8d80
 8002274:	3fe00000 			@ <UNDEFINED> instruction: 3fe00000

08002278 <TIM2_Stopwatch_Start>:
 8002278:	490c      	ldr	r1, [pc, #48]	@ (80022ac <TIM2_Stopwatch_Start+0x34>)
 800227a:	6c0a      	ldr	r2, [r1, #64]	@ 0x40
 800227c:	f04f 4380 	mov.w	r3, #1073741824	@ 0x40000000
 8002280:	f042 0201 	orr.w	r2, r2, #1
 8002284:	640a      	str	r2, [r1, #64]	@ 0x40
 8002286:	f04f 0c18 	mov.w	ip, #24
 800228a:	f64f 72ff 	movw	r2, #65535	@ 0xffff
 800228e:	f240 707f 	movw	r0, #1919	@ 0x77f
 8002292:	f8c3 c000 	str.w	ip, [r3]
 8002296:	6298      	str	r0, [r3, #40]	@ 0x28
 8002298:	62da      	str	r2, [r3, #44]	@ 0x2c
 800229a:	695a      	ldr	r2, [r3, #20]
 800229c:	f042 0201 	orr.w	r2, r2, #1
 80022a0:	615a      	str	r2, [r3, #20]
 80022a2:	681a      	ldr	r2, [r3, #0]
 80022a4:	f042 0201 	orr.w	r2, r2, #1
 80022a8:	601a      	str	r2, [r3, #0]
 80022aa:	4770      	bx	lr
 80022ac:	40023800 			@ <UNDEFINED> instruction: 40023800

080022b0 <TIM2_Stopwatch_Stop>:
 80022b0:	f04f 4380 	mov.w	r3, #1073741824	@ 0x40000000
 80022b4:	4905      	ldr	r1, [pc, #20]	@ (80022cc <TIM2_Stopwatch_Stop+0x1c>)
 80022b6:	681a      	ldr	r2, [r3, #0]
 80022b8:	f022 0201 	bic.w	r2, r2, #1
 80022bc:	601a      	str	r2, [r3, #0]
 80022be:	6a5b      	ldr	r3, [r3, #36]	@ 0x24
 80022c0:	f06f 0013 	mvn.w	r0, #19
 80022c4:	fb00 1003 	mla	r0, r0, r3, r1
 80022c8:	4770      	bx	lr
 80022ca:	bf00      	nop
 80022cc:	0013ffec 			@ <UNDEFINED> instruction: 0013ffec

080022d0 <TIM2_Delay>:
 80022d0:	4928      	ldr	r1, [pc, #160]	@ (8002374 <TIM2_Delay+0xa4>)
 80022d2:	6c0b      	ldr	r3, [r1, #64]	@ 0x40
 80022d4:	f04f 4280 	mov.w	r2, #1073741824	@ 0x40000000
 80022d8:	f043 0301 	orr.w	r3, r3, #1
 80022dc:	640b      	str	r3, [r1, #64]	@ 0x40
 80022de:	f240 7c7f 	movw	ip, #1919	@ 0x77f
 80022e2:	2118      	movs	r1, #24
 80022e4:	f64f 73ff 	movw	r3, #65535	@ 0xffff
 80022e8:	f8c2 c028 	str.w	ip, [r2, #40]	@ 0x28
 80022ec:	6011      	str	r1, [r2, #0]
 80022ee:	62d3      	str	r3, [r2, #44]	@ 0x2c
 80022f0:	6953      	ldr	r3, [r2, #20]
 80022f2:	2132      	movs	r1, #50	@ 0x32
 80022f4:	fb01 fc00 	mul.w	ip, r1, r0
 80022f8:	f64f 71fe 	movw	r1, #65534	@ 0xfffe
 80022fc:	f043 0301 	orr.w	r3, r3, #1
 8002300:	458c      	cmp	ip, r1
 8002302:	6153      	str	r3, [r2, #20]
 8002304:	d916      	bls.n	8002334 <TIM2_Delay+0x64>
 8002306:	481c      	ldr	r0, [pc, #112]	@ (8002378 <TIM2_Delay+0xa8>)
 8002308:	fba0 300c 	umull	r3, r0, r0, ip
 800230c:	2100      	movs	r1, #0
 800230e:	0bc0      	lsrs	r0, r0, #15
 8002310:	6953      	ldr	r3, [r2, #20]
 8002312:	f043 0301 	orr.w	r3, r3, #1
 8002316:	6153      	str	r3, [r2, #20]
 8002318:	6913      	ldr	r3, [r2, #16]
 800231a:	f023 0301 	bic.w	r3, r3, #1
 800231e:	6113      	str	r3, [r2, #16]
 8002320:	6813      	ldr	r3, [r2, #0]
 8002322:	f043 0301 	orr.w	r3, r3, #1
 8002326:	6013      	str	r3, [r2, #0]
 8002328:	6913      	ldr	r3, [r2, #16]
 800232a:	07db      	lsls	r3, r3, #31
 800232c:	d5fc      	bpl.n	8002328 <TIM2_Delay+0x58>
 800232e:	3101      	adds	r1, #1
 8002330:	4281      	cmp	r1, r0
 8002332:	d3ed      	bcc.n	8002310 <TIM2_Delay+0x40>
 8002334:	4a10      	ldr	r2, [pc, #64]	@ (8002378 <TIM2_Delay+0xa8>)
 8002336:	fba2 120c 	umull	r1, r2, r2, ip
 800233a:	0bd2      	lsrs	r2, r2, #15
 800233c:	f04f 4380 	mov.w	r3, #1073741824	@ 0x40000000
 8002340:	ebc2 4202 	rsb	r2, r2, r2, lsl #16
 8002344:	ebac 0202 	sub.w	r2, ip, r2
 8002348:	62da      	str	r2, [r3, #44]	@ 0x2c
 800234a:	695a      	ldr	r2, [r3, #20]
 800234c:	f042 0201 	orr.w	r2, r2, #1
 8002350:	615a      	str	r2, [r3, #20]
 8002352:	691a      	ldr	r2, [r3, #16]
 8002354:	f022 0201 	bic.w	r2, r2, #1
 8002358:	611a      	str	r2, [r3, #16]
 800235a:	681a      	ldr	r2, [r3, #0]
 800235c:	f042 0201 	orr.w	r2, r2, #1
 8002360:	601a      	str	r2, [r3, #0]
 8002362:	691a      	ldr	r2, [r3, #16]
 8002364:	07d2      	lsls	r2, r2, #31
 8002366:	d5fc      	bpl.n	8002362 <TIM2_Delay+0x92>
 8002368:	681a      	ldr	r2, [r3, #0]
 800236a:	f022 0201 	bic.w	r2, r2, #1
 800236e:	601a      	str	r2, [r3, #0]
 8002370:	4770      	bx	lr
 8002372:	bf00      	nop
 8002374:	40023800 			@ <UNDEFINED> instruction: 40023800
 8002378:	80008001 			@ <UNDEFINED> instruction: 80008001

0800237c <TIM4_Repeat>:
 800237c:	490e      	ldr	r1, [pc, #56]	@ (80023b8 <TIM4_Repeat+0x3c>)
 800237e:	4b0f      	ldr	r3, [pc, #60]	@ (80023bc <TIM4_Repeat+0x40>)
 8002380:	6c0a      	ldr	r2, [r1, #64]	@ 0x40
 8002382:	f04f 0c32 	mov.w	ip, #50	@ 0x32
 8002386:	f042 0204 	orr.w	r2, r2, #4
 800238a:	fb0c f000 	mul.w	r0, ip, r0
 800238e:	640a      	str	r2, [r1, #64]	@ 0x40
 8002390:	3801      	subs	r0, #1
 8002392:	f240 727f 	movw	r2, #1919	@ 0x77f
 8002396:	2110      	movs	r1, #16
 8002398:	6019      	str	r1, [r3, #0]
 800239a:	629a      	str	r2, [r3, #40]	@ 0x28
 800239c:	62d8      	str	r0, [r3, #44]	@ 0x2c
 800239e:	695a      	ldr	r2, [r3, #20]
 80023a0:	f042 0201 	orr.w	r2, r2, #1
 80023a4:	615a      	str	r2, [r3, #20]
 80023a6:	691a      	ldr	r2, [r3, #16]
 80023a8:	f022 0201 	bic.w	r2, r2, #1
 80023ac:	611a      	str	r2, [r3, #16]
 80023ae:	681a      	ldr	r2, [r3, #0]
 80023b0:	f042 0201 	orr.w	r2, r2, #1
 80023b4:	601a      	str	r2, [r3, #0]
 80023b6:	4770      	bx	lr
 80023b8:	40023800 			@ <UNDEFINED> instruction: 40023800
 80023bc:	40000800 			@ <UNDEFINED> instruction: 40000800

080023c0 <TIM4_Check_Timeout>:
 80023c0:	4b05      	ldr	r3, [pc, #20]	@ (80023d8 <TIM4_Check_Timeout+0x18>)
 80023c2:	6918      	ldr	r0, [r3, #16]
 80023c4:	f010 0001 	ands.w	r0, r0, #1
 80023c8:	d004      	beq.n	80023d4 <TIM4_Check_Timeout+0x14>
 80023ca:	691a      	ldr	r2, [r3, #16]
 80023cc:	f022 0201 	bic.w	r2, r2, #1
 80023d0:	2001      	movs	r0, #1
 80023d2:	611a      	str	r2, [r3, #16]
 80023d4:	4770      	bx	lr
 80023d6:	bf00      	nop
 80023d8:	40000800 			@ <UNDEFINED> instruction: 40000800

080023dc <TIM4_Stop>:
 80023dc:	4a02      	ldr	r2, [pc, #8]	@ (80023e8 <TIM4_Stop+0xc>)
 80023de:	6813      	ldr	r3, [r2, #0]
 80023e0:	f023 0301 	bic.w	r3, r3, #1
 80023e4:	6013      	str	r3, [r2, #0]
 80023e6:	4770      	bx	lr
 80023e8:	40000800 			@ <UNDEFINED> instruction: 40000800

080023ec <TIM4_Change_Value>:
 80023ec:	4b02      	ldr	r3, [pc, #8]	@ (80023f8 <TIM4_Change_Value+0xc>)
 80023ee:	2232      	movs	r2, #50	@ 0x32
 80023f0:	fb02 f000 	mul.w	r0, r2, r0
 80023f4:	62d8      	str	r0, [r3, #44]	@ 0x2c
 80023f6:	4770      	bx	lr
 80023f8:	40000800 			@ <UNDEFINED> instruction: 40000800

080023fc <TIM3_Out_Init>:
 80023fc:	4b10      	ldr	r3, [pc, #64]	@ (8002440 <TIM3_Out_Init+0x44>)
 80023fe:	4a11      	ldr	r2, [pc, #68]	@ (8002444 <TIM3_Out_Init+0x48>)
 8002400:	6b18      	ldr	r0, [r3, #48]	@ 0x30
 8002402:	4911      	ldr	r1, [pc, #68]	@ (8002448 <TIM3_Out_Init+0x4c>)
 8002404:	f040 0002 	orr.w	r0, r0, #2
 8002408:	6318      	str	r0, [r3, #48]	@ 0x30
 800240a:	6c18      	ldr	r0, [r3, #64]	@ 0x40
 800240c:	f040 0002 	orr.w	r0, r0, #2
 8002410:	6418      	str	r0, [r3, #64]	@ 0x40
 8002412:	6813      	ldr	r3, [r2, #0]
 8002414:	f023 0303 	bic.w	r3, r3, #3
 8002418:	f043 0302 	orr.w	r3, r3, #2
 800241c:	6013      	str	r3, [r2, #0]
 800241e:	6a13      	ldr	r3, [r2, #32]
 8002420:	f023 030f 	bic.w	r3, r3, #15
 8002424:	f043 0302 	orr.w	r3, r3, #2
 8002428:	6213      	str	r3, [r2, #32]
 800242a:	69cb      	ldr	r3, [r1, #28]
 800242c:	f023 03ff 	bic.w	r3, r3, #255	@ 0xff
 8002430:	f44f 7080 	mov.w	r0, #256	@ 0x100
 8002434:	f043 0360 	orr.w	r3, r3, #96	@ 0x60
 8002438:	61cb      	str	r3, [r1, #28]
 800243a:	6208      	str	r0, [r1, #32]
 800243c:	4770      	bx	lr
 800243e:	bf00      	nop
 8002440:	40023800 			@ <UNDEFINED> instruction: 40023800
 8002444:	40020400 			@ <UNDEFINED> instruction: 40020400
 8002448:	40000400 			@ <UNDEFINED> instruction: 40000400

0800244c <TIM3_Out_Freq_Generation>:
 800244c:	4b0f      	ldr	r3, [pc, #60]	@ (800248c <TIM3_Out_Freq_Generation+0x40>)
 800244e:	b1d0      	cbz	r0, 8002486 <TIM3_Out_Freq_Generation+0x3a>
 8002450:	4a0f      	ldr	r2, [pc, #60]	@ (8002490 <TIM3_Out_Freq_Generation+0x44>)
 8002452:	fbb2 f2f0 	udiv	r2, r2, r0
 8002456:	210b      	movs	r1, #11
 8002458:	3a01      	subs	r2, #1
 800245a:	6299      	str	r1, [r3, #40]	@ 0x28
 800245c:	62da      	str	r2, [r3, #44]	@ 0x2c
 800245e:	6ada      	ldr	r2, [r3, #44]	@ 0x2c
 8002460:	0852      	lsrs	r2, r2, #1
 8002462:	63da      	str	r2, [r3, #60]	@ 0x3c
 8002464:	691a      	ldr	r2, [r3, #16]
 8002466:	f042 0201 	orr.w	r2, r2, #1
 800246a:	611a      	str	r2, [r3, #16]
 800246c:	681a      	ldr	r2, [r3, #0]
 800246e:	f042 0210 	orr.w	r2, r2, #16
 8002472:	601a      	str	r2, [r3, #0]
 8002474:	681a      	ldr	r2, [r3, #0]
 8002476:	f022 0208 	bic.w	r2, r2, #8
 800247a:	601a      	str	r2, [r3, #0]
 800247c:	681a      	ldr	r2, [r3, #0]
 800247e:	f042 0201 	orr.w	r2, r2, #1
 8002482:	601a      	str	r2, [r3, #0]
 8002484:	4770      	bx	lr
 8002486:	6018      	str	r0, [r3, #0]
 8002488:	4770      	bx	lr
 800248a:	bf00      	nop
 800248c:	40000400 			@ <UNDEFINED> instruction: 40000400
 8002490:	007a1200 			@ <UNDEFINED> instruction: 007a1200

08002494 <TIM3_Out_Stop>:
 8002494:	4a02      	ldr	r2, [pc, #8]	@ (80024a0 <TIM3_Out_Stop+0xc>)
 8002496:	6813      	ldr	r3, [r2, #0]
 8002498:	f023 0301 	bic.w	r3, r3, #1
 800249c:	6013      	str	r3, [r2, #0]
 800249e:	4770      	bx	lr
 80024a0:	40000400 			@ <UNDEFINED> instruction: 40000400

080024a4 <TIM2_Init>:
 80024a4:	4918      	ldr	r1, [pc, #96]	@ (8002508 <TIM2_Init+0x64>)
 80024a6:	6c0a      	ldr	r2, [r1, #64]	@ 0x40
 80024a8:	f04f 4380 	mov.w	r3, #1073741824	@ 0x40000000
 80024ac:	f042 0201 	orr.w	r2, r2, #1
 80024b0:	f04f 0c5f 	mov.w	ip, #95	@ 0x5f
 80024b4:	f240 70cf 	movw	r0, #1999	@ 0x7cf
 80024b8:	640a      	str	r2, [r1, #64]	@ 0x40
 80024ba:	f8c3 c028 	str.w	ip, [r3, #40]	@ 0x28
 80024be:	62d8      	str	r0, [r3, #44]	@ 0x2c
 80024c0:	699a      	ldr	r2, [r3, #24]
 80024c2:	f022 0270 	bic.w	r2, r2, #112	@ 0x70
 80024c6:	f042 0260 	orr.w	r2, r2, #96	@ 0x60
 80024ca:	619a      	str	r2, [r3, #24]
 80024cc:	699a      	ldr	r2, [r3, #24]
 80024ce:	f422 42e0 	bic.w	r2, r2, #28672	@ 0x7000
 80024d2:	f442 42c0 	orr.w	r2, r2, #24576	@ 0x6000
 80024d6:	619a      	str	r2, [r3, #24]
 80024d8:	699a      	ldr	r2, [r3, #24]
 80024da:	f042 0208 	orr.w	r2, r2, #8
 80024de:	619a      	str	r2, [r3, #24]
 80024e0:	699a      	ldr	r2, [r3, #24]
 80024e2:	f442 6200 	orr.w	r2, r2, #2048	@ 0x800
 80024e6:	619a      	str	r2, [r3, #24]
 80024e8:	6a1a      	ldr	r2, [r3, #32]
 80024ea:	f042 0201 	orr.w	r2, r2, #1
 80024ee:	621a      	str	r2, [r3, #32]
 80024f0:	6a1a      	ldr	r2, [r3, #32]
 80024f2:	2100      	movs	r1, #0
 80024f4:	f042 0210 	orr.w	r2, r2, #16
 80024f8:	621a      	str	r2, [r3, #32]
 80024fa:	6359      	str	r1, [r3, #52]	@ 0x34
 80024fc:	6399      	str	r1, [r3, #56]	@ 0x38
 80024fe:	681a      	ldr	r2, [r3, #0]
 8002500:	f042 0201 	orr.w	r2, r2, #1
 8002504:	601a      	str	r2, [r3, #0]
 8002506:	4770      	bx	lr
 8002508:	40023800 			@ <UNDEFINED> instruction: 40023800
 800250c:	00000000 			@ <UNDEFINED> instruction: 00000000

08002510 <Uart2_Init>:
 8002510:	b570      	push	{r4, r5, r6, lr}
 8002512:	4a35      	ldr	r2, [pc, #212]	@ (80025e8 <Uart2_Init+0xd8>)
 8002514:	4b35      	ldr	r3, [pc, #212]	@ (80025ec <Uart2_Init+0xdc>)
 8002516:	6b11      	ldr	r1, [r2, #48]	@ 0x30
 8002518:	f041 0101 	orr.w	r1, r1, #1
 800251c:	b082      	sub	sp, #8
 800251e:	6311      	str	r1, [r2, #48]	@ 0x30
 8002520:	6c11      	ldr	r1, [r2, #64]	@ 0x40
 8002522:	f441 3100 	orr.w	r1, r1, #131072	@ 0x20000
 8002526:	6411      	str	r1, [r2, #64]	@ 0x40
 8002528:	681a      	ldr	r2, [r3, #0]
 800252a:	f022 02f0 	bic.w	r2, r2, #240	@ 0xf0
 800252e:	f042 02a0 	orr.w	r2, r2, #160	@ 0xa0
 8002532:	601a      	str	r2, [r3, #0]
 8002534:	6a1a      	ldr	r2, [r3, #32]
 8002536:	f422 427f 	bic.w	r2, r2, #65280	@ 0xff00
 800253a:	f442 42ee 	orr.w	r2, r2, #30464	@ 0x7700
 800253e:	621a      	str	r2, [r3, #32]
 8002540:	68da      	ldr	r2, [r3, #12]
 8002542:	f022 02f0 	bic.w	r2, r2, #240	@ 0xf0
 8002546:	f042 0250 	orr.w	r2, r2, #80	@ 0x50
 800254a:	60da      	str	r2, [r3, #12]
 800254c:	69da      	ldr	r2, [r3, #28]
 800254e:	f3c2 020e 	ubfx	r2, r2, #0, #15
 8002552:	9201      	str	r2, [sp, #4]
 8002554:	9a01      	ldr	r2, [sp, #4]
 8002556:	f442 3280 	orr.w	r2, r2, #65536	@ 0x10000
 800255a:	f042 020c 	orr.w	r2, r2, #12
 800255e:	61da      	str	r2, [r3, #28]
 8002560:	9a01      	ldr	r2, [sp, #4]
 8002562:	f042 020c 	orr.w	r2, r2, #12
 8002566:	61da      	str	r2, [r3, #28]
 8002568:	9a01      	ldr	r2, [sp, #4]
 800256a:	f442 3280 	orr.w	r2, r2, #65536	@ 0x10000
 800256e:	f042 020c 	orr.w	r2, r2, #12
 8002572:	61da      	str	r2, [r3, #28]
 8002574:	69db      	ldr	r3, [r3, #28]
 8002576:	9301      	str	r3, [sp, #4]
 8002578:	f000 fd88 	bl	800308c <__aeabi_i2d>
 800257c:	4b1c      	ldr	r3, [pc, #112]	@ (80025f0 <Uart2_Init+0xe0>)
 800257e:	2200      	movs	r2, #0
 8002580:	f000 fdee 	bl	8003160 <__aeabi_dmul>
 8002584:	4602      	mov	r2, r0
 8002586:	460b      	mov	r3, r1
 8002588:	a115      	add	r1, pc, #84	@ (adr r1, 80025e0 <Uart2_Init+0xd0>)
 800258a:	e9d1 0100 	ldrd	r0, r1, [r1]
 800258e:	f000 ff11 	bl	80033b4 <__aeabi_ddiv>
 8002592:	460d      	mov	r5, r1
 8002594:	4604      	mov	r4, r0
 8002596:	f001 f893 	bl	80036c0 <__aeabi_d2iz>
 800259a:	4606      	mov	r6, r0
 800259c:	f000 fd66 	bl	800306c <__aeabi_ui2d>
 80025a0:	4602      	mov	r2, r0
 80025a2:	460b      	mov	r3, r1
 80025a4:	4620      	mov	r0, r4
 80025a6:	4629      	mov	r1, r5
 80025a8:	f000 fc22 	bl	8002df0 <__aeabi_dsub>
 80025ac:	4b10      	ldr	r3, [pc, #64]	@ (80025f0 <Uart2_Init+0xe0>)
 80025ae:	2200      	movs	r2, #0
 80025b0:	f000 fdd6 	bl	8003160 <__aeabi_dmul>
 80025b4:	4b0f      	ldr	r3, [pc, #60]	@ (80025f4 <Uart2_Init+0xe4>)
 80025b6:	2200      	movs	r2, #0
 80025b8:	f000 fc1c 	bl	8002df4 <__adddf3>
 80025bc:	f001 f880 	bl	80036c0 <__aeabi_d2iz>
 80025c0:	4b0d      	ldr	r3, [pc, #52]	@ (80025f8 <Uart2_Init+0xe8>)
 80025c2:	eb06 1210 	add.w	r2, r6, r0, lsr #4
 80025c6:	f000 000f 	and.w	r0, r0, #15
 80025ca:	2100      	movs	r1, #0
 80025cc:	ea40 1002 	orr.w	r0, r0, r2, lsl #4
 80025d0:	f242 020c 	movw	r2, #8204	@ 0x200c
 80025d4:	6098      	str	r0, [r3, #8]
 80025d6:	60da      	str	r2, [r3, #12]
 80025d8:	6119      	str	r1, [r3, #16]
 80025da:	6159      	str	r1, [r3, #20]
 80025dc:	b002      	add	sp, #8
 80025de:	bd70      	pop	{r4, r5, r6, pc}
 80025e0:	00000000 			@ <UNDEFINED> instruction: 00000000
 80025e4:	4186e360 			@ <UNDEFINED> instruction: 4186e360
 80025e8:	40023800 			@ <UNDEFINED> instruction: 40023800
 80025ec:	40020000 			@ <UNDEFINED> instruction: 40020000
 80025f0:	40300000 			@ <UNDEFINED> instruction: 40300000
 80025f4:	3fe00000 			@ <UNDEFINED> instruction: 3fe00000
 80025f8:	40004400 			@ <UNDEFINED> instruction: 40004400

080025fc <Uart2_Send_Byte>:
 80025fc:	280a      	cmp	r0, #10
 80025fe:	d005      	beq.n	800260c <Uart2_Send_Byte+0x10>
 8002600:	4a06      	ldr	r2, [pc, #24]	@ (800261c <Uart2_Send_Byte+0x20>)
 8002602:	6813      	ldr	r3, [r2, #0]
 8002604:	061b      	lsls	r3, r3, #24
 8002606:	d5fc      	bpl.n	8002602 <Uart2_Send_Byte+0x6>
 8002608:	6050      	str	r0, [r2, #4]
 800260a:	4770      	bx	lr
 800260c:	4a03      	ldr	r2, [pc, #12]	@ (800261c <Uart2_Send_Byte+0x20>)
 800260e:	6813      	ldr	r3, [r2, #0]
 8002610:	0619      	lsls	r1, r3, #24
 8002612:	d5fc      	bpl.n	800260e <Uart2_Send_Byte+0x12>
 8002614:	230d      	movs	r3, #13
 8002616:	6053      	str	r3, [r2, #4]
 8002618:	e7f2      	b.n	8002600 <Uart2_Send_Byte+0x4>
 800261a:	bf00      	nop
 800261c:	40004400 			@ <UNDEFINED> instruction: 40004400

08002620 <Uart1_Init>:
 8002620:	b570      	push	{r4, r5, r6, lr}
 8002622:	4a37      	ldr	r2, [pc, #220]	@ (8002700 <Uart1_Init+0xe0>)
 8002624:	4b37      	ldr	r3, [pc, #220]	@ (8002704 <Uart1_Init+0xe4>)
 8002626:	6b11      	ldr	r1, [r2, #48]	@ 0x30
 8002628:	f041 0101 	orr.w	r1, r1, #1
 800262c:	b082      	sub	sp, #8
 800262e:	6311      	str	r1, [r2, #48]	@ 0x30
 8002630:	6c51      	ldr	r1, [r2, #68]	@ 0x44
 8002632:	f041 0110 	orr.w	r1, r1, #16
 8002636:	6451      	str	r1, [r2, #68]	@ 0x44
 8002638:	681a      	ldr	r2, [r3, #0]
 800263a:	f422 1270 	bic.w	r2, r2, #3932160	@ 0x3c0000
 800263e:	f442 1220 	orr.w	r2, r2, #2621440	@ 0x280000
 8002642:	601a      	str	r2, [r3, #0]
 8002644:	6a5a      	ldr	r2, [r3, #36]	@ 0x24
 8002646:	f422 627f 	bic.w	r2, r2, #4080	@ 0xff0
 800264a:	f442 62ee 	orr.w	r2, r2, #1904	@ 0x770
 800264e:	625a      	str	r2, [r3, #36]	@ 0x24
 8002650:	68da      	ldr	r2, [r3, #12]
 8002652:	f422 1270 	bic.w	r2, r2, #3932160	@ 0x3c0000
 8002656:	f442 12a0 	orr.w	r2, r2, #1310720	@ 0x140000
 800265a:	60da      	str	r2, [r3, #12]
 800265c:	69da      	ldr	r2, [r3, #28]
 800265e:	f3c2 020e 	ubfx	r2, r2, #0, #15
 8002662:	9201      	str	r2, [sp, #4]
 8002664:	9a01      	ldr	r2, [sp, #4]
 8002666:	f442 3283 	orr.w	r2, r2, #67072	@ 0x10600
 800266a:	61da      	str	r2, [r3, #28]
 800266c:	9a01      	ldr	r2, [sp, #4]
 800266e:	f442 62c0 	orr.w	r2, r2, #1536	@ 0x600
 8002672:	61da      	str	r2, [r3, #28]
 8002674:	9a01      	ldr	r2, [sp, #4]
 8002676:	f442 3283 	orr.w	r2, r2, #67072	@ 0x10600
 800267a:	61da      	str	r2, [r3, #28]
 800267c:	69db      	ldr	r3, [r3, #28]
 800267e:	9301      	str	r3, [sp, #4]
 8002680:	f000 fd04 	bl	800308c <__aeabi_i2d>
 8002684:	4b20      	ldr	r3, [pc, #128]	@ (8002708 <Uart1_Init+0xe8>)
 8002686:	2200      	movs	r2, #0
 8002688:	f000 fd6a 	bl	8003160 <__aeabi_dmul>
 800268c:	4602      	mov	r2, r0
 800268e:	460b      	mov	r3, r1
 8002690:	a119      	add	r1, pc, #100	@ (adr r1, 80026f8 <Uart1_Init+0xd8>)
 8002692:	e9d1 0100 	ldrd	r0, r1, [r1]
 8002696:	f000 fe8d 	bl	80033b4 <__aeabi_ddiv>
 800269a:	460d      	mov	r5, r1
 800269c:	4604      	mov	r4, r0
 800269e:	f001 f80f 	bl	80036c0 <__aeabi_d2iz>
 80026a2:	4606      	mov	r6, r0
 80026a4:	f000 fce2 	bl	800306c <__aeabi_ui2d>
 80026a8:	4602      	mov	r2, r0
 80026aa:	460b      	mov	r3, r1
 80026ac:	4620      	mov	r0, r4
 80026ae:	4629      	mov	r1, r5
 80026b0:	f000 fb9e 	bl	8002df0 <__aeabi_dsub>
 80026b4:	4b14      	ldr	r3, [pc, #80]	@ (8002708 <Uart1_Init+0xe8>)
 80026b6:	2200      	movs	r2, #0
 80026b8:	f000 fd52 	bl	8003160 <__aeabi_dmul>
 80026bc:	4b13      	ldr	r3, [pc, #76]	@ (800270c <Uart1_Init+0xec>)
 80026be:	2200      	movs	r2, #0
 80026c0:	f000 fb98 	bl	8002df4 <__adddf3>
 80026c4:	f000 fffc 	bl	80036c0 <__aeabi_d2iz>
 80026c8:	4b11      	ldr	r3, [pc, #68]	@ (8002710 <Uart1_Init+0xf0>)
 80026ca:	4912      	ldr	r1, [pc, #72]	@ (8002714 <Uart1_Init+0xf4>)
 80026cc:	eb06 1210 	add.w	r2, r6, r0, lsr #4
 80026d0:	f000 000f 	and.w	r0, r0, #15
 80026d4:	f04f 0c00 	mov.w	ip, #0
 80026d8:	ea40 1002 	orr.w	r0, r0, r2, lsl #4
 80026dc:	f242 022c 	movw	r2, #8236	@ 0x202c
 80026e0:	6098      	str	r0, [r3, #8]
 80026e2:	60da      	str	r2, [r3, #12]
 80026e4:	f8c3 c010 	str.w	ip, [r3, #16]
 80026e8:	f8c3 c014 	str.w	ip, [r3, #20]
 80026ec:	684b      	ldr	r3, [r1, #4]
 80026ee:	f043 0320 	orr.w	r3, r3, #32
 80026f2:	604b      	str	r3, [r1, #4]
 80026f4:	b002      	add	sp, #8
 80026f6:	bd70      	pop	{r4, r5, r6, pc}
 80026f8:	00000000 			@ <UNDEFINED> instruction: 00000000
 80026fc:	4196e360 			@ <UNDEFINED> instruction: 4196e360
 8002700:	40023800 			@ <UNDEFINED> instruction: 40023800
 8002704:	40020000 			@ <UNDEFINED> instruction: 40020000
 8002708:	40300000 			@ <UNDEFINED> instruction: 40300000
 800270c:	3fe00000 			@ <UNDEFINED> instruction: 3fe00000
 8002710:	40011000 			@ <UNDEFINED> instruction: 40011000
 8002714:	e000e100 			@ <UNDEFINED> instruction: e000e100

08002718 <Uart1_Send_Byte>:
 8002718:	280a      	cmp	r0, #10
 800271a:	d005      	beq.n	8002728 <Uart1_Send_Byte+0x10>
 800271c:	4a06      	ldr	r2, [pc, #24]	@ (8002738 <Uart1_Send_Byte+0x20>)
 800271e:	6813      	ldr	r3, [r2, #0]
 8002720:	061b      	lsls	r3, r3, #24
 8002722:	d5fc      	bpl.n	800271e <Uart1_Send_Byte+0x6>
 8002724:	6050      	str	r0, [r2, #4]
 8002726:	4770      	bx	lr
 8002728:	4a03      	ldr	r2, [pc, #12]	@ (8002738 <Uart1_Send_Byte+0x20>)
 800272a:	6813      	ldr	r3, [r2, #0]
 800272c:	0619      	lsls	r1, r3, #24
 800272e:	d5fc      	bpl.n	800272a <Uart1_Send_Byte+0x12>
 8002730:	230d      	movs	r3, #13
 8002732:	6053      	str	r3, [r2, #4]
 8002734:	e7f2      	b.n	800271c <Uart1_Send_Byte+0x4>
 8002736:	bf00      	nop
 8002738:	40011000 			@ <UNDEFINED> instruction: 40011000

0800273c <Uart1_Send_String>:
 800273c:	7801      	ldrb	r1, [r0, #0]
 800273e:	b161      	cbz	r1, 800275a <Uart1_Send_String+0x1e>
 8002740:	4a09      	ldr	r2, [pc, #36]	@ (8002768 <Uart1_Send_String+0x2c>)
 8002742:	f04f 0c0d 	mov.w	ip, #13
 8002746:	290a      	cmp	r1, #10
 8002748:	d008      	beq.n	800275c <Uart1_Send_String+0x20>
 800274a:	6813      	ldr	r3, [r2, #0]
 800274c:	061b      	lsls	r3, r3, #24
 800274e:	d5fc      	bpl.n	800274a <Uart1_Send_String+0xe>
 8002750:	6051      	str	r1, [r2, #4]
 8002752:	f810 1f01 	ldrb.w	r1, [r0, #1]!
 8002756:	2900      	cmp	r1, #0
 8002758:	d1f5      	bne.n	8002746 <Uart1_Send_String+0xa>
 800275a:	4770      	bx	lr
 800275c:	6813      	ldr	r3, [r2, #0]
 800275e:	061b      	lsls	r3, r3, #24
 8002760:	d5fc      	bpl.n	800275c <Uart1_Send_String+0x20>
 8002762:	f8c2 c004 	str.w	ip, [r2, #4]
 8002766:	e7f0      	b.n	800274a <Uart1_Send_String+0xe>
 8002768:	40011000 			@ <UNDEFINED> instruction: 40011000

0800276c <Uart1_Printf>:
 800276c:	b40f      	push	{r0, r1, r2, r3}
 800276e:	b510      	push	{r4, lr}
 8002770:	b0c2      	sub	sp, #264	@ 0x108
 8002772:	aa44      	add	r2, sp, #272	@ 0x110
 8002774:	a802      	add	r0, sp, #8
 8002776:	f852 1b04 	ldr.w	r1, [r2], #4
 800277a:	9201      	str	r2, [sp, #4]
 800277c:	f001 fe0c 	bl	8004398 <vsiprintf>
 8002780:	f89d 1008 	ldrb.w	r1, [sp, #8]
 8002784:	b161      	cbz	r1, 80027a0 <Uart1_Printf+0x34>
 8002786:	4a0b      	ldr	r2, [pc, #44]	@ (80027b4 <Uart1_Printf+0x48>)
 8002788:	a802      	add	r0, sp, #8
 800278a:	240d      	movs	r4, #13
 800278c:	290a      	cmp	r1, #10
 800278e:	d00c      	beq.n	80027aa <Uart1_Printf+0x3e>
 8002790:	6813      	ldr	r3, [r2, #0]
 8002792:	061b      	lsls	r3, r3, #24
 8002794:	d5fc      	bpl.n	8002790 <Uart1_Printf+0x24>
 8002796:	6051      	str	r1, [r2, #4]
 8002798:	f810 1f01 	ldrb.w	r1, [r0, #1]!
 800279c:	2900      	cmp	r1, #0
 800279e:	d1f5      	bne.n	800278c <Uart1_Printf+0x20>
 80027a0:	b042      	add	sp, #264	@ 0x108
 80027a2:	e8bd 4010 	ldmia.w	sp!, {r4, lr}
 80027a6:	b004      	add	sp, #16
 80027a8:	4770      	bx	lr
 80027aa:	6813      	ldr	r3, [r2, #0]
 80027ac:	061b      	lsls	r3, r3, #24
 80027ae:	d5fc      	bpl.n	80027aa <Uart1_Printf+0x3e>
 80027b0:	6054      	str	r4, [r2, #4]
 80027b2:	e7ed      	b.n	8002790 <Uart1_Printf+0x24>
 80027b4:	40011000 			@ <UNDEFINED> instruction: 40011000

080027b8 <Uart1_Get_Pressed>:
 80027b8:	4b03      	ldr	r3, [pc, #12]	@ (80027c8 <Uart1_Get_Pressed+0x10>)
 80027ba:	6818      	ldr	r0, [r3, #0]
 80027bc:	f010 0020 	ands.w	r0, r0, #32
 80027c0:	bf1c      	itt	ne
 80027c2:	6858      	ldrne	r0, [r3, #4]
 80027c4:	b2c0      	uxtbne	r0, r0
 80027c6:	4770      	bx	lr
 80027c8:	40011000 			@ <UNDEFINED> instruction: 40011000

080027cc <Uart2_Get_Char>:
 80027cc:	4a03      	ldr	r2, [pc, #12]	@ (80027dc <Uart2_Get_Char+0x10>)
 80027ce:	6813      	ldr	r3, [r2, #0]
 80027d0:	069b      	lsls	r3, r3, #26
 80027d2:	d5fc      	bpl.n	80027ce <Uart2_Get_Char+0x2>
 80027d4:	6850      	ldr	r0, [r2, #4]
 80027d6:	b2c0      	uxtb	r0, r0
 80027d8:	4770      	bx	lr
 80027da:	bf00      	nop
 80027dc:	40004400 			@ <UNDEFINED> instruction: 40004400

080027e0 <Uart2_Send_String>:
 80027e0:	7801      	ldrb	r1, [r0, #0]
 80027e2:	b161      	cbz	r1, 80027fe <Uart2_Send_String+0x1e>
 80027e4:	4a09      	ldr	r2, [pc, #36]	@ (800280c <Uart2_Send_String+0x2c>)
 80027e6:	f04f 0c0d 	mov.w	ip, #13
 80027ea:	290a      	cmp	r1, #10
 80027ec:	d008      	beq.n	8002800 <Uart2_Send_String+0x20>
 80027ee:	6813      	ldr	r3, [r2, #0]
 80027f0:	061b      	lsls	r3, r3, #24
 80027f2:	d5fc      	bpl.n	80027ee <Uart2_Send_String+0xe>
 80027f4:	6051      	str	r1, [r2, #4]
 80027f6:	f810 1f01 	ldrb.w	r1, [r0, #1]!
 80027fa:	2900      	cmp	r1, #0
 80027fc:	d1f5      	bne.n	80027ea <Uart2_Send_String+0xa>
 80027fe:	4770      	bx	lr
 8002800:	6813      	ldr	r3, [r2, #0]
 8002802:	061b      	lsls	r3, r3, #24
 8002804:	d5fc      	bpl.n	8002800 <Uart2_Send_String+0x20>
 8002806:	f8c2 c004 	str.w	ip, [r2, #4]
 800280a:	e7f0      	b.n	80027ee <Uart2_Send_String+0xe>
 800280c:	40004400 			@ <UNDEFINED> instruction: 40004400

08002810 <Uart2_Printf>:
 8002810:	b40f      	push	{r0, r1, r2, r3}
 8002812:	b510      	push	{r4, lr}
 8002814:	b0c2      	sub	sp, #264	@ 0x108
 8002816:	aa44      	add	r2, sp, #272	@ 0x110
 8002818:	a802      	add	r0, sp, #8
 800281a:	f852 1b04 	ldr.w	r1, [r2], #4
 800281e:	9201      	str	r2, [sp, #4]
 8002820:	f001 fdba 	bl	8004398 <vsiprintf>
 8002824:	f89d 1008 	ldrb.w	r1, [sp, #8]
 8002828:	b161      	cbz	r1, 8002844 <Uart2_Printf+0x34>
 800282a:	4a0b      	ldr	r2, [pc, #44]	@ (8002858 <Uart2_Printf+0x48>)
 800282c:	a802      	add	r0, sp, #8
 800282e:	240d      	movs	r4, #13
 8002830:	290a      	cmp	r1, #10
 8002832:	d00c      	beq.n	800284e <Uart2_Printf+0x3e>
 8002834:	6813      	ldr	r3, [r2, #0]
 8002836:	061b      	lsls	r3, r3, #24
 8002838:	d5fc      	bpl.n	8002834 <Uart2_Printf+0x24>
 800283a:	6051      	str	r1, [r2, #4]
 800283c:	f810 1f01 	ldrb.w	r1, [r0, #1]!
 8002840:	2900      	cmp	r1, #0
 8002842:	d1f5      	bne.n	8002830 <Uart2_Printf+0x20>
 8002844:	b042      	add	sp, #264	@ 0x108
 8002846:	e8bd 4010 	ldmia.w	sp!, {r4, lr}
 800284a:	b004      	add	sp, #16
 800284c:	4770      	bx	lr
 800284e:	6813      	ldr	r3, [r2, #0]
 8002850:	061b      	lsls	r3, r3, #24
 8002852:	d5fc      	bpl.n	800284e <Uart2_Printf+0x3e>
 8002854:	6054      	str	r4, [r2, #4]
 8002856:	e7ed      	b.n	8002834 <Uart2_Printf+0x24>
 8002858:	40004400 			@ <UNDEFINED> instruction: 40004400

0800285c <Process_UART_Input>:
 800285c:	4770      	bx	lr
 800285e:	bf00      	nop

08002860 <USART1_IRQHandler>:
 8002860:	4b50      	ldr	r3, [pc, #320]	@ (80029a4 <USART1_IRQHandler+0x144>)
 8002862:	681a      	ldr	r2, [r3, #0]
 8002864:	0692      	lsls	r2, r2, #26
 8002866:	d511      	bpl.n	800288c <USART1_IRQHandler+0x2c>
 8002868:	b5f0      	push	{r4, r5, r6, r7, lr}
 800286a:	685b      	ldr	r3, [r3, #4]
 800286c:	4c4e      	ldr	r4, [pc, #312]	@ (80029a8 <USART1_IRQHandler+0x148>)
 800286e:	b2db      	uxtb	r3, r3
 8002870:	2b0d      	cmp	r3, #13
 8002872:	6822      	ldr	r2, [r4, #0]
 8002874:	b087      	sub	sp, #28
 8002876:	d00a      	beq.n	800288e <USART1_IRQHandler+0x2e>
 8002878:	2b0a      	cmp	r3, #10
 800287a:	d008      	beq.n	800288e <USART1_IRQHandler+0x2e>
 800287c:	2a12      	cmp	r2, #18
 800287e:	dc15      	bgt.n	80028ac <USART1_IRQHandler+0x4c>
 8002880:	18a1      	adds	r1, r4, r2
 8002882:	3201      	adds	r2, #1
 8002884:	6022      	str	r2, [r4, #0]
 8002886:	710b      	strb	r3, [r1, #4]
 8002888:	b007      	add	sp, #28
 800288a:	bdf0      	pop	{r4, r5, r6, r7, pc}
 800288c:	4770      	bx	lr
 800288e:	2100      	movs	r1, #0
 8002890:	18a3      	adds	r3, r4, r2
 8002892:	428a      	cmp	r2, r1
 8002894:	7119      	strb	r1, [r3, #4]
 8002896:	dd07      	ble.n	80028a8 <USART1_IRQHandler+0x48>
 8002898:	7923      	ldrb	r3, [r4, #4]
 800289a:	2b61      	cmp	r3, #97	@ 0x61
 800289c:	d026      	beq.n	80028ec <USART1_IRQHandler+0x8c>
 800289e:	d807      	bhi.n	80028b0 <USART1_IRQHandler+0x50>
 80028a0:	2b41      	cmp	r3, #65	@ 0x41
 80028a2:	d023      	beq.n	80028ec <USART1_IRQHandler+0x8c>
 80028a4:	2b54      	cmp	r3, #84	@ 0x54
 80028a6:	d005      	beq.n	80028b4 <USART1_IRQHandler+0x54>
 80028a8:	2300      	movs	r3, #0
 80028aa:	6023      	str	r3, [r4, #0]
 80028ac:	b007      	add	sp, #28
 80028ae:	bdf0      	pop	{r4, r5, r6, r7, pc}
 80028b0:	2b74      	cmp	r3, #116	@ 0x74
 80028b2:	d1f9      	bne.n	80028a8 <USART1_IRQHandler+0x48>
 80028b4:	ab05      	add	r3, sp, #20
 80028b6:	9300      	str	r3, [sp, #0]
 80028b8:	493c      	ldr	r1, [pc, #240]	@ (80029ac <USART1_IRQHandler+0x14c>)
 80028ba:	483d      	ldr	r0, [pc, #244]	@ (80029b0 <USART1_IRQHandler+0x150>)
 80028bc:	ab04      	add	r3, sp, #16
 80028be:	aa03      	add	r2, sp, #12
 80028c0:	f001 fcb8 	bl	8004234 <siscanf>
 80028c4:	2803      	cmp	r0, #3
 80028c6:	d1ef      	bne.n	80028a8 <USART1_IRQHandler+0x48>
 80028c8:	e9dd 1204 	ldrd	r1, r2, [sp, #16]
 80028cc:	9803      	ldr	r0, [sp, #12]
 80028ce:	f7fd fd9b 	bl	8000408 <Set_Current_Time>
 80028d2:	e9dd 2304 	ldrd	r2, r3, [sp, #16]
 80028d6:	9903      	ldr	r1, [sp, #12]
 80028d8:	4836      	ldr	r0, [pc, #216]	@ (80029b4 <USART1_IRQHandler+0x154>)
 80028da:	f001 fba5 	bl	8004028 <iprintf>
 80028de:	e9dd 2304 	ldrd	r2, r3, [sp, #16]
 80028e2:	4835      	ldr	r0, [pc, #212]	@ (80029b8 <USART1_IRQHandler+0x158>)
 80028e4:	9903      	ldr	r1, [sp, #12]
 80028e6:	f7ff ff41 	bl	800276c <Uart1_Printf>
 80028ea:	e7dd      	b.n	80028a8 <USART1_IRQHandler+0x48>
 80028ec:	ab05      	add	r3, sp, #20
 80028ee:	9300      	str	r3, [sp, #0]
 80028f0:	492e      	ldr	r1, [pc, #184]	@ (80029ac <USART1_IRQHandler+0x14c>)
 80028f2:	482f      	ldr	r0, [pc, #188]	@ (80029b0 <USART1_IRQHandler+0x150>)
 80028f4:	ab04      	add	r3, sp, #16
 80028f6:	aa03      	add	r2, sp, #12
 80028f8:	f001 fc9c 	bl	8004234 <siscanf>
 80028fc:	2803      	cmp	r0, #3
 80028fe:	d1d3      	bne.n	80028a8 <USART1_IRQHandler+0x48>
 8002900:	482e      	ldr	r0, [pc, #184]	@ (80029bc <USART1_IRQHandler+0x15c>)
